
/home/zsq259/Desktop/1/RISC-V-CPU/riscv/testcase/fpga/heart.om:     file format elf32-littleriscv


Disassembly of section .rom:

00000000 <.rom>:
   0:	00020137          	lui	sp,0x20
   4:	671030ef          	jal	3e74 <main>
   8:	0ff00513          	li	a0,255
   c:	000306b7          	lui	a3,0x30
  10:	00a68223          	sb	a0,4(a3) # 30004 <__heap_start+0x2b004>
  14:	ff9ff06f          	j	c <f-0xff4>

Disassembly of section .text:

00001000 <f>:
    1000:	fe010113          	add	sp,sp,-32 # 1ffe0 <__heap_start+0x1afe0>
    1004:	00912a23          	sw	s1,20(sp)
    1008:	00058493          	mv	s1,a1
    100c:	00050593          	mv	a1,a0
    1010:	00112e23          	sw	ra,28(sp)
    1014:	00812c23          	sw	s0,24(sp)
    1018:	01212823          	sw	s2,16(sp)
    101c:	00060413          	mv	s0,a2
    1020:	01312623          	sw	s3,12(sp)
    1024:	2ec020ef          	jal	3310 <__mulsf3>
    1028:	000047b7          	lui	a5,0x4
    102c:	6407a583          	lw	a1,1600(a5) # 4640 <__clz_tab+0x10c>
    1030:	00050913          	mv	s2,a0
    1034:	00048513          	mv	a0,s1
    1038:	2d8020ef          	jal	3310 <__mulsf3>
    103c:	00048593          	mv	a1,s1
    1040:	2d0020ef          	jal	3310 <__mulsf3>
    1044:	00090593          	mv	a1,s2
    1048:	165010ef          	jal	29ac <__addsf3>
    104c:	00050993          	mv	s3,a0
    1050:	00040593          	mv	a1,s0
    1054:	00040513          	mv	a0,s0
    1058:	2b8020ef          	jal	3310 <__mulsf3>
    105c:	00050593          	mv	a1,a0
    1060:	00098513          	mv	a0,s3
    1064:	149010ef          	jal	29ac <__addsf3>
    1068:	000047b7          	lui	a5,0x4
    106c:	6447a583          	lw	a1,1604(a5) # 4644 <__clz_tab+0x110>
    1070:	5ec020ef          	jal	365c <__subsf3>
    1074:	00050593          	mv	a1,a0
    1078:	00050993          	mv	s3,a0
    107c:	294020ef          	jal	3310 <__mulsf3>
    1080:	00098593          	mv	a1,s3
    1084:	28c020ef          	jal	3310 <__mulsf3>
    1088:	00050793          	mv	a5,a0
    108c:	00040593          	mv	a1,s0
    1090:	00090513          	mv	a0,s2
    1094:	00078913          	mv	s2,a5
    1098:	278020ef          	jal	3310 <__mulsf3>
    109c:	00040593          	mv	a1,s0
    10a0:	270020ef          	jal	3310 <__mulsf3>
    10a4:	00040593          	mv	a1,s0
    10a8:	268020ef          	jal	3310 <__mulsf3>
    10ac:	00050593          	mv	a1,a0
    10b0:	00090513          	mv	a0,s2
    10b4:	5a8020ef          	jal	365c <__subsf3>
    10b8:	000047b7          	lui	a5,0x4
    10bc:	6487a583          	lw	a1,1608(a5) # 4648 <__clz_tab+0x114>
    10c0:	00050913          	mv	s2,a0
    10c4:	00048513          	mv	a0,s1
    10c8:	248020ef          	jal	3310 <__mulsf3>
    10cc:	00048593          	mv	a1,s1
    10d0:	240020ef          	jal	3310 <__mulsf3>
    10d4:	00040593          	mv	a1,s0
    10d8:	238020ef          	jal	3310 <__mulsf3>
    10dc:	00040593          	mv	a1,s0
    10e0:	230020ef          	jal	3310 <__mulsf3>
    10e4:	00040593          	mv	a1,s0
    10e8:	228020ef          	jal	3310 <__mulsf3>
    10ec:	00050593          	mv	a1,a0
    10f0:	00090513          	mv	a0,s2
    10f4:	568020ef          	jal	365c <__subsf3>
    10f8:	01c12083          	lw	ra,28(sp)
    10fc:	01812403          	lw	s0,24(sp)
    1100:	01412483          	lw	s1,20(sp)
    1104:	01012903          	lw	s2,16(sp)
    1108:	00c12983          	lw	s3,12(sp)
    110c:	02010113          	add	sp,sp,32
    1110:	00008067          	ret

00001114 <h>:
    1114:	fd010113          	add	sp,sp,-48
    1118:	03212023          	sw	s2,32(sp)
    111c:	00058913          	mv	s2,a1
    1120:	00050593          	mv	a1,a0
    1124:	02112623          	sw	ra,44(sp)
    1128:	02812423          	sw	s0,40(sp)
    112c:	01312e23          	sw	s3,28(sp)
    1130:	01412c23          	sw	s4,24(sp)
    1134:	01512a23          	sw	s5,20(sp)
    1138:	01612823          	sw	s6,16(sp)
    113c:	01712623          	sw	s7,12(sp)
    1140:	01812423          	sw	s8,8(sp)
    1144:	01912223          	sw	s9,4(sp)
    1148:	02912223          	sw	s1,36(sp)
    114c:	1c4020ef          	jal	3310 <__mulsf3>
    1150:	00050993          	mv	s3,a0
    1154:	00090593          	mv	a1,s2
    1158:	00090513          	mv	a0,s2
    115c:	1b4020ef          	jal	3310 <__mulsf3>
    1160:	00098593          	mv	a1,s3
    1164:	00050a93          	mv	s5,a0
    1168:	00090513          	mv	a0,s2
    116c:	1a4020ef          	jal	3310 <__mulsf3>
    1170:	00090593          	mv	a1,s2
    1174:	19c020ef          	jal	3310 <__mulsf3>
    1178:	00090593          	mv	a1,s2
    117c:	194020ef          	jal	3310 <__mulsf3>
    1180:	000047b7          	lui	a5,0x4
    1184:	6447a403          	lw	s0,1604(a5) # 4644 <__clz_tab+0x110>
    1188:	000047b7          	lui	a5,0x4
    118c:	6407ac83          	lw	s9,1600(a5) # 4640 <__clz_tab+0x10c>
    1190:	000047b7          	lui	a5,0x4
    1194:	6487ac03          	lw	s8,1608(a5) # 4648 <__clz_tab+0x114>
    1198:	000047b7          	lui	a5,0x4
    119c:	64c7ab83          	lw	s7,1612(a5) # 464c <__clz_tab+0x118>
    11a0:	00050a13          	mv	s4,a0
    11a4:	00040b13          	mv	s6,s0
    11a8:	0180006f          	j	11c0 <h+0xac>
    11ac:	4b0020ef          	jal	365c <__subsf3>
    11b0:	00000593          	li	a1,0
    11b4:	00050413          	mv	s0,a0
    11b8:	000020ef          	jal	31b8 <__gesf2>
    11bc:	0c054c63          	bltz	a0,1294 <h+0x180>
    11c0:	000c8593          	mv	a1,s9
    11c4:	00040513          	mv	a0,s0
    11c8:	148020ef          	jal	3310 <__mulsf3>
    11cc:	00040593          	mv	a1,s0
    11d0:	140020ef          	jal	3310 <__mulsf3>
    11d4:	00098593          	mv	a1,s3
    11d8:	7d4010ef          	jal	29ac <__addsf3>
    11dc:	000a8593          	mv	a1,s5
    11e0:	7cc010ef          	jal	29ac <__addsf3>
    11e4:	000b0593          	mv	a1,s6
    11e8:	474020ef          	jal	365c <__subsf3>
    11ec:	00050593          	mv	a1,a0
    11f0:	00050493          	mv	s1,a0
    11f4:	11c020ef          	jal	3310 <__mulsf3>
    11f8:	00048593          	mv	a1,s1
    11fc:	114020ef          	jal	3310 <__mulsf3>
    1200:	000a0593          	mv	a1,s4
    1204:	458020ef          	jal	365c <__subsf3>
    1208:	00050493          	mv	s1,a0
    120c:	000c0593          	mv	a1,s8
    1210:	00040513          	mv	a0,s0
    1214:	0fc020ef          	jal	3310 <__mulsf3>
    1218:	00040593          	mv	a1,s0
    121c:	0f4020ef          	jal	3310 <__mulsf3>
    1220:	00090593          	mv	a1,s2
    1224:	0ec020ef          	jal	3310 <__mulsf3>
    1228:	00090593          	mv	a1,s2
    122c:	0e4020ef          	jal	3310 <__mulsf3>
    1230:	00090593          	mv	a1,s2
    1234:	0dc020ef          	jal	3310 <__mulsf3>
    1238:	00050593          	mv	a1,a0
    123c:	00048513          	mv	a0,s1
    1240:	41c020ef          	jal	365c <__subsf3>
    1244:	00000593          	li	a1,0
    1248:	01c020ef          	jal	3264 <__lesf2>
    124c:	00050793          	mv	a5,a0
    1250:	000b8593          	mv	a1,s7
    1254:	00040513          	mv	a0,s0
    1258:	f4f04ae3          	bgtz	a5,11ac <h+0x98>
    125c:	02c12083          	lw	ra,44(sp)
    1260:	00040513          	mv	a0,s0
    1264:	02812403          	lw	s0,40(sp)
    1268:	02412483          	lw	s1,36(sp)
    126c:	02012903          	lw	s2,32(sp)
    1270:	01c12983          	lw	s3,28(sp)
    1274:	01812a03          	lw	s4,24(sp)
    1278:	01412a83          	lw	s5,20(sp)
    127c:	01012b03          	lw	s6,16(sp)
    1280:	00c12b83          	lw	s7,12(sp)
    1284:	00812c03          	lw	s8,8(sp)
    1288:	00412c83          	lw	s9,4(sp)
    128c:	03010113          	add	sp,sp,48
    1290:	00008067          	ret
    1294:	00000413          	li	s0,0
    1298:	fc5ff06f          	j	125c <h+0x148>

0000129c <mysqrt>:
    129c:	fe010113          	add	sp,sp,-32
    12a0:	00000593          	li	a1,0
    12a4:	00812c23          	sw	s0,24(sp)
    12a8:	00112e23          	sw	ra,28(sp)
    12ac:	00050413          	mv	s0,a0
    12b0:	6a1010ef          	jal	3150 <__eqsf2>
    12b4:	0c050063          	beqz	a0,1374 <mysqrt+0xd8>
    12b8:	000047b7          	lui	a5,0x4
    12bc:	6507a583          	lw	a1,1616(a5) # 4650 <__clz_tab+0x11c>
    12c0:	00040513          	mv	a0,s0
    12c4:	00912a23          	sw	s1,20(sp)
    12c8:	01212823          	sw	s2,16(sp)
    12cc:	01312623          	sw	s3,12(sp)
    12d0:	01412423          	sw	s4,8(sp)
    12d4:	01512223          	sw	s5,4(sp)
    12d8:	01612023          	sw	s6,0(sp)
    12dc:	034020ef          	jal	3310 <__mulsf3>
    12e0:	01d020ef          	jal	3afc <__extendsfdf2>
    12e4:	00050493          	mv	s1,a0
    12e8:	00040513          	mv	a0,s0
    12ec:	00058413          	mv	s0,a1
    12f0:	00d020ef          	jal	3afc <__extendsfdf2>
    12f4:	000047b7          	lui	a5,0x4
    12f8:	6707a903          	lw	s2,1648(a5) # 4670 <__clz_tab+0x13c>
    12fc:	6747a983          	lw	s3,1652(a5)
    1300:	00050a93          	mv	s5,a0
    1304:	00058a13          	mv	s4,a1
    1308:	03200b13          	li	s6,50
    130c:	00048613          	mv	a2,s1
    1310:	00040693          	mv	a3,s0
    1314:	000a8513          	mv	a0,s5
    1318:	000a0593          	mv	a1,s4
    131c:	001000ef          	jal	1b1c <__divdf3>
    1320:	00048613          	mv	a2,s1
    1324:	00040693          	mv	a3,s0
    1328:	060000ef          	jal	1388 <__adddf3>
    132c:	00090613          	mv	a2,s2
    1330:	00098693          	mv	a3,s3
    1334:	7c9000ef          	jal	22fc <__muldf3>
    1338:	fffb0b13          	add	s6,s6,-1
    133c:	00050493          	mv	s1,a0
    1340:	00058413          	mv	s0,a1
    1344:	fc0b14e3          	bnez	s6,130c <mysqrt+0x70>
    1348:	091020ef          	jal	3bd8 <__truncdfsf2>
    134c:	01c12083          	lw	ra,28(sp)
    1350:	01812403          	lw	s0,24(sp)
    1354:	01412483          	lw	s1,20(sp)
    1358:	01012903          	lw	s2,16(sp)
    135c:	00c12983          	lw	s3,12(sp)
    1360:	00812a03          	lw	s4,8(sp)
    1364:	00412a83          	lw	s5,4(sp)
    1368:	00012b03          	lw	s6,0(sp)
    136c:	02010113          	add	sp,sp,32
    1370:	00008067          	ret
    1374:	01c12083          	lw	ra,28(sp)
    1378:	01812403          	lw	s0,24(sp)
    137c:	00000513          	li	a0,0
    1380:	02010113          	add	sp,sp,32
    1384:	00008067          	ret

00001388 <__adddf3>:
    1388:	00100837          	lui	a6,0x100
    138c:	fff80813          	add	a6,a6,-1 # fffff <__heap_start+0xfafff>
    1390:	fe010113          	add	sp,sp,-32
    1394:	00b878b3          	and	a7,a6,a1
    1398:	0145d713          	srl	a4,a1,0x14
    139c:	01d55793          	srl	a5,a0,0x1d
    13a0:	00d87833          	and	a6,a6,a3
    13a4:	00912a23          	sw	s1,20(sp)
    13a8:	7ff77493          	and	s1,a4,2047
    13ac:	00389713          	sll	a4,a7,0x3
    13b0:	0146d893          	srl	a7,a3,0x14
    13b4:	00381813          	sll	a6,a6,0x3
    13b8:	01212823          	sw	s2,16(sp)
    13bc:	00e7e7b3          	or	a5,a5,a4
    13c0:	7ff8f893          	and	a7,a7,2047
    13c4:	01d65713          	srl	a4,a2,0x1d
    13c8:	00112e23          	sw	ra,28(sp)
    13cc:	00812c23          	sw	s0,24(sp)
    13d0:	01312623          	sw	s3,12(sp)
    13d4:	01f5d913          	srl	s2,a1,0x1f
    13d8:	01f6d693          	srl	a3,a3,0x1f
    13dc:	01076733          	or	a4,a4,a6
    13e0:	00351513          	sll	a0,a0,0x3
    13e4:	00361613          	sll	a2,a2,0x3
    13e8:	41148833          	sub	a6,s1,a7
    13ec:	2ad91a63          	bne	s2,a3,16a0 <__adddf3+0x318>
    13f0:	11005c63          	blez	a6,1508 <__adddf3+0x180>
    13f4:	04089063          	bnez	a7,1434 <__adddf3+0xac>
    13f8:	00c766b3          	or	a3,a4,a2
    13fc:	66068063          	beqz	a3,1a5c <__adddf3+0x6d4>
    1400:	fff80593          	add	a1,a6,-1
    1404:	02059063          	bnez	a1,1424 <__adddf3+0x9c>
    1408:	00c50633          	add	a2,a0,a2
    140c:	00a636b3          	sltu	a3,a2,a0
    1410:	00e78733          	add	a4,a5,a4
    1414:	00060513          	mv	a0,a2
    1418:	00d707b3          	add	a5,a4,a3
    141c:	00100493          	li	s1,1
    1420:	06c0006f          	j	148c <__adddf3+0x104>
    1424:	7ff00693          	li	a3,2047
    1428:	02d81063          	bne	a6,a3,1448 <__adddf3+0xc0>
    142c:	7ff00493          	li	s1,2047
    1430:	1f80006f          	j	1628 <__adddf3+0x2a0>
    1434:	7ff00693          	li	a3,2047
    1438:	1ed48863          	beq	s1,a3,1628 <__adddf3+0x2a0>
    143c:	008006b7          	lui	a3,0x800
    1440:	00d76733          	or	a4,a4,a3
    1444:	00080593          	mv	a1,a6
    1448:	03800693          	li	a3,56
    144c:	0ab6c863          	blt	a3,a1,14fc <__adddf3+0x174>
    1450:	01f00693          	li	a3,31
    1454:	06b6ca63          	blt	a3,a1,14c8 <__adddf3+0x140>
    1458:	02000813          	li	a6,32
    145c:	40b80833          	sub	a6,a6,a1
    1460:	010716b3          	sll	a3,a4,a6
    1464:	00b658b3          	srl	a7,a2,a1
    1468:	01061833          	sll	a6,a2,a6
    146c:	0116e6b3          	or	a3,a3,a7
    1470:	01003833          	snez	a6,a6
    1474:	0106e6b3          	or	a3,a3,a6
    1478:	00b755b3          	srl	a1,a4,a1
    147c:	00a68533          	add	a0,a3,a0
    1480:	00f585b3          	add	a1,a1,a5
    1484:	00d536b3          	sltu	a3,a0,a3
    1488:	00d587b3          	add	a5,a1,a3
    148c:	00879713          	sll	a4,a5,0x8
    1490:	18075c63          	bgez	a4,1628 <__adddf3+0x2a0>
    1494:	00148493          	add	s1,s1,1
    1498:	7ff00713          	li	a4,2047
    149c:	5ae48a63          	beq	s1,a4,1a50 <__adddf3+0x6c8>
    14a0:	ff800737          	lui	a4,0xff800
    14a4:	fff70713          	add	a4,a4,-1 # ff7fffff <__heap_start+0xff7fafff>
    14a8:	00e7f733          	and	a4,a5,a4
    14ac:	00155793          	srl	a5,a0,0x1
    14b0:	00157513          	and	a0,a0,1
    14b4:	00a7e7b3          	or	a5,a5,a0
    14b8:	01f71513          	sll	a0,a4,0x1f
    14bc:	00f56533          	or	a0,a0,a5
    14c0:	00175793          	srl	a5,a4,0x1
    14c4:	1640006f          	j	1628 <__adddf3+0x2a0>
    14c8:	fe058693          	add	a3,a1,-32
    14cc:	02000893          	li	a7,32
    14d0:	00d756b3          	srl	a3,a4,a3
    14d4:	00000813          	li	a6,0
    14d8:	01158863          	beq	a1,a7,14e8 <__adddf3+0x160>
    14dc:	04000813          	li	a6,64
    14e0:	40b80833          	sub	a6,a6,a1
    14e4:	01071833          	sll	a6,a4,a6
    14e8:	00c86833          	or	a6,a6,a2
    14ec:	01003833          	snez	a6,a6
    14f0:	0106e6b3          	or	a3,a3,a6
    14f4:	00000593          	li	a1,0
    14f8:	f85ff06f          	j	147c <__adddf3+0xf4>
    14fc:	00c766b3          	or	a3,a4,a2
    1500:	00d036b3          	snez	a3,a3
    1504:	ff1ff06f          	j	14f4 <__adddf3+0x16c>
    1508:	0c080a63          	beqz	a6,15dc <__adddf3+0x254>
    150c:	409886b3          	sub	a3,a7,s1
    1510:	02049463          	bnez	s1,1538 <__adddf3+0x1b0>
    1514:	00a7e5b3          	or	a1,a5,a0
    1518:	50058e63          	beqz	a1,1a34 <__adddf3+0x6ac>
    151c:	fff68593          	add	a1,a3,-1 # 7fffff <__heap_start+0x7fafff>
    1520:	ee0584e3          	beqz	a1,1408 <__adddf3+0x80>
    1524:	7ff00813          	li	a6,2047
    1528:	03069263          	bne	a3,a6,154c <__adddf3+0x1c4>
    152c:	00070793          	mv	a5,a4
    1530:	00060513          	mv	a0,a2
    1534:	ef9ff06f          	j	142c <__adddf3+0xa4>
    1538:	7ff00593          	li	a1,2047
    153c:	feb888e3          	beq	a7,a1,152c <__adddf3+0x1a4>
    1540:	008005b7          	lui	a1,0x800
    1544:	00b7e7b3          	or	a5,a5,a1
    1548:	00068593          	mv	a1,a3
    154c:	03800693          	li	a3,56
    1550:	08b6c063          	blt	a3,a1,15d0 <__adddf3+0x248>
    1554:	01f00693          	li	a3,31
    1558:	04b6c263          	blt	a3,a1,159c <__adddf3+0x214>
    155c:	02000813          	li	a6,32
    1560:	40b80833          	sub	a6,a6,a1
    1564:	010796b3          	sll	a3,a5,a6
    1568:	00b55333          	srl	t1,a0,a1
    156c:	01051833          	sll	a6,a0,a6
    1570:	0066e6b3          	or	a3,a3,t1
    1574:	01003833          	snez	a6,a6
    1578:	0106e6b3          	or	a3,a3,a6
    157c:	00b7d5b3          	srl	a1,a5,a1
    1580:	00c68633          	add	a2,a3,a2
    1584:	00e585b3          	add	a1,a1,a4
    1588:	00d636b3          	sltu	a3,a2,a3
    158c:	00060513          	mv	a0,a2
    1590:	00d587b3          	add	a5,a1,a3
    1594:	00088493          	mv	s1,a7
    1598:	ef5ff06f          	j	148c <__adddf3+0x104>
    159c:	fe058693          	add	a3,a1,-32 # 7fffe0 <__heap_start+0x7fafe0>
    15a0:	02000313          	li	t1,32
    15a4:	00d7d6b3          	srl	a3,a5,a3
    15a8:	00000813          	li	a6,0
    15ac:	00658863          	beq	a1,t1,15bc <__adddf3+0x234>
    15b0:	04000813          	li	a6,64
    15b4:	40b80833          	sub	a6,a6,a1
    15b8:	01079833          	sll	a6,a5,a6
    15bc:	00a86833          	or	a6,a6,a0
    15c0:	01003833          	snez	a6,a6
    15c4:	0106e6b3          	or	a3,a3,a6
    15c8:	00000593          	li	a1,0
    15cc:	fb5ff06f          	j	1580 <__adddf3+0x1f8>
    15d0:	00a7e6b3          	or	a3,a5,a0
    15d4:	00d036b3          	snez	a3,a3
    15d8:	ff1ff06f          	j	15c8 <__adddf3+0x240>
    15dc:	00148693          	add	a3,s1,1
    15e0:	7fe6f593          	and	a1,a3,2046
    15e4:	08059663          	bnez	a1,1670 <__adddf3+0x2e8>
    15e8:	00a7e6b3          	or	a3,a5,a0
    15ec:	06049263          	bnez	s1,1650 <__adddf3+0x2c8>
    15f0:	44068863          	beqz	a3,1a40 <__adddf3+0x6b8>
    15f4:	00c766b3          	or	a3,a4,a2
    15f8:	02068863          	beqz	a3,1628 <__adddf3+0x2a0>
    15fc:	00c50633          	add	a2,a0,a2
    1600:	00a636b3          	sltu	a3,a2,a0
    1604:	00e78733          	add	a4,a5,a4
    1608:	00d707b3          	add	a5,a4,a3
    160c:	00879713          	sll	a4,a5,0x8
    1610:	00060513          	mv	a0,a2
    1614:	00075a63          	bgez	a4,1628 <__adddf3+0x2a0>
    1618:	ff800737          	lui	a4,0xff800
    161c:	fff70713          	add	a4,a4,-1 # ff7fffff <__heap_start+0xff7fafff>
    1620:	00e7f7b3          	and	a5,a5,a4
    1624:	00100493          	li	s1,1
    1628:	00757713          	and	a4,a0,7
    162c:	44070863          	beqz	a4,1a7c <__adddf3+0x6f4>
    1630:	00f57713          	and	a4,a0,15
    1634:	00400693          	li	a3,4
    1638:	44d70263          	beq	a4,a3,1a7c <__adddf3+0x6f4>
    163c:	00450713          	add	a4,a0,4
    1640:	00a736b3          	sltu	a3,a4,a0
    1644:	00d787b3          	add	a5,a5,a3
    1648:	00070513          	mv	a0,a4
    164c:	4300006f          	j	1a7c <__adddf3+0x6f4>
    1650:	ec068ee3          	beqz	a3,152c <__adddf3+0x1a4>
    1654:	00c76633          	or	a2,a4,a2
    1658:	dc060ae3          	beqz	a2,142c <__adddf3+0xa4>
    165c:	00000913          	li	s2,0
    1660:	004007b7          	lui	a5,0x400
    1664:	00000513          	li	a0,0
    1668:	7ff00493          	li	s1,2047
    166c:	4100006f          	j	1a7c <__adddf3+0x6f4>
    1670:	7ff00593          	li	a1,2047
    1674:	3cb68c63          	beq	a3,a1,1a4c <__adddf3+0x6c4>
    1678:	00c50633          	add	a2,a0,a2
    167c:	00a63533          	sltu	a0,a2,a0
    1680:	00e78733          	add	a4,a5,a4
    1684:	00a70733          	add	a4,a4,a0
    1688:	01f71513          	sll	a0,a4,0x1f
    168c:	00165613          	srl	a2,a2,0x1
    1690:	00c56533          	or	a0,a0,a2
    1694:	00175793          	srl	a5,a4,0x1
    1698:	00068493          	mv	s1,a3
    169c:	f8dff06f          	j	1628 <__adddf3+0x2a0>
    16a0:	0f005c63          	blez	a6,1798 <__adddf3+0x410>
    16a4:	08089e63          	bnez	a7,1740 <__adddf3+0x3b8>
    16a8:	00c766b3          	or	a3,a4,a2
    16ac:	3a068863          	beqz	a3,1a5c <__adddf3+0x6d4>
    16b0:	fff80693          	add	a3,a6,-1
    16b4:	02069063          	bnez	a3,16d4 <__adddf3+0x34c>
    16b8:	40c50633          	sub	a2,a0,a2
    16bc:	00c536b3          	sltu	a3,a0,a2
    16c0:	40e78733          	sub	a4,a5,a4
    16c4:	00060513          	mv	a0,a2
    16c8:	40d707b3          	sub	a5,a4,a3
    16cc:	00100493          	li	s1,1
    16d0:	0540006f          	j	1724 <__adddf3+0x39c>
    16d4:	7ff00593          	li	a1,2047
    16d8:	d4b80ae3          	beq	a6,a1,142c <__adddf3+0xa4>
    16dc:	03800593          	li	a1,56
    16e0:	0ad5c663          	blt	a1,a3,178c <__adddf3+0x404>
    16e4:	01f00593          	li	a1,31
    16e8:	06d5c863          	blt	a1,a3,1758 <__adddf3+0x3d0>
    16ec:	02000813          	li	a6,32
    16f0:	40d80833          	sub	a6,a6,a3
    16f4:	00d658b3          	srl	a7,a2,a3
    16f8:	010715b3          	sll	a1,a4,a6
    16fc:	01061833          	sll	a6,a2,a6
    1700:	0115e5b3          	or	a1,a1,a7
    1704:	01003833          	snez	a6,a6
    1708:	0105e633          	or	a2,a1,a6
    170c:	00d756b3          	srl	a3,a4,a3
    1710:	40c50633          	sub	a2,a0,a2
    1714:	00c53733          	sltu	a4,a0,a2
    1718:	40d786b3          	sub	a3,a5,a3
    171c:	00060513          	mv	a0,a2
    1720:	40e687b3          	sub	a5,a3,a4
    1724:	00879713          	sll	a4,a5,0x8
    1728:	f00750e3          	bgez	a4,1628 <__adddf3+0x2a0>
    172c:	00800437          	lui	s0,0x800
    1730:	fff40413          	add	s0,s0,-1 # 7fffff <__heap_start+0x7fafff>
    1734:	0087f433          	and	s0,a5,s0
    1738:	00050993          	mv	s3,a0
    173c:	2100006f          	j	194c <__adddf3+0x5c4>
    1740:	7ff00693          	li	a3,2047
    1744:	eed482e3          	beq	s1,a3,1628 <__adddf3+0x2a0>
    1748:	008006b7          	lui	a3,0x800
    174c:	00d76733          	or	a4,a4,a3
    1750:	00080693          	mv	a3,a6
    1754:	f89ff06f          	j	16dc <__adddf3+0x354>
    1758:	fe068593          	add	a1,a3,-32 # 7fffe0 <__heap_start+0x7fafe0>
    175c:	02000893          	li	a7,32
    1760:	00b755b3          	srl	a1,a4,a1
    1764:	00000813          	li	a6,0
    1768:	01168863          	beq	a3,a7,1778 <__adddf3+0x3f0>
    176c:	04000813          	li	a6,64
    1770:	40d80833          	sub	a6,a6,a3
    1774:	01071833          	sll	a6,a4,a6
    1778:	00c86833          	or	a6,a6,a2
    177c:	01003833          	snez	a6,a6
    1780:	0105e633          	or	a2,a1,a6
    1784:	00000693          	li	a3,0
    1788:	f89ff06f          	j	1710 <__adddf3+0x388>
    178c:	00c76633          	or	a2,a4,a2
    1790:	00c03633          	snez	a2,a2
    1794:	ff1ff06f          	j	1784 <__adddf3+0x3fc>
    1798:	0e080863          	beqz	a6,1888 <__adddf3+0x500>
    179c:	40988833          	sub	a6,a7,s1
    17a0:	04049263          	bnez	s1,17e4 <__adddf3+0x45c>
    17a4:	00a7e5b3          	or	a1,a5,a0
    17a8:	2a058e63          	beqz	a1,1a64 <__adddf3+0x6dc>
    17ac:	fff80593          	add	a1,a6,-1
    17b0:	00059e63          	bnez	a1,17cc <__adddf3+0x444>
    17b4:	40a60533          	sub	a0,a2,a0
    17b8:	40f70733          	sub	a4,a4,a5
    17bc:	00a63633          	sltu	a2,a2,a0
    17c0:	40c707b3          	sub	a5,a4,a2
    17c4:	00068913          	mv	s2,a3
    17c8:	f05ff06f          	j	16cc <__adddf3+0x344>
    17cc:	7ff00313          	li	t1,2047
    17d0:	02681463          	bne	a6,t1,17f8 <__adddf3+0x470>
    17d4:	00070793          	mv	a5,a4
    17d8:	00060513          	mv	a0,a2
    17dc:	7ff00493          	li	s1,2047
    17e0:	0d00006f          	j	18b0 <__adddf3+0x528>
    17e4:	7ff00593          	li	a1,2047
    17e8:	feb886e3          	beq	a7,a1,17d4 <__adddf3+0x44c>
    17ec:	008005b7          	lui	a1,0x800
    17f0:	00b7e7b3          	or	a5,a5,a1
    17f4:	00080593          	mv	a1,a6
    17f8:	03800813          	li	a6,56
    17fc:	08b84063          	blt	a6,a1,187c <__adddf3+0x4f4>
    1800:	01f00813          	li	a6,31
    1804:	04b84263          	blt	a6,a1,1848 <__adddf3+0x4c0>
    1808:	02000313          	li	t1,32
    180c:	40b30333          	sub	t1,t1,a1
    1810:	00b55e33          	srl	t3,a0,a1
    1814:	00679833          	sll	a6,a5,t1
    1818:	00651333          	sll	t1,a0,t1
    181c:	01c86833          	or	a6,a6,t3
    1820:	00603333          	snez	t1,t1
    1824:	00686533          	or	a0,a6,t1
    1828:	00b7d5b3          	srl	a1,a5,a1
    182c:	40a60533          	sub	a0,a2,a0
    1830:	40b705b3          	sub	a1,a4,a1
    1834:	00a63633          	sltu	a2,a2,a0
    1838:	40c587b3          	sub	a5,a1,a2
    183c:	00088493          	mv	s1,a7
    1840:	00068913          	mv	s2,a3
    1844:	ee1ff06f          	j	1724 <__adddf3+0x39c>
    1848:	fe058813          	add	a6,a1,-32 # 7fffe0 <__heap_start+0x7fafe0>
    184c:	02000e13          	li	t3,32
    1850:	0107d833          	srl	a6,a5,a6
    1854:	00000313          	li	t1,0
    1858:	01c58863          	beq	a1,t3,1868 <__adddf3+0x4e0>
    185c:	04000313          	li	t1,64
    1860:	40b30333          	sub	t1,t1,a1
    1864:	00679333          	sll	t1,a5,t1
    1868:	00a36333          	or	t1,t1,a0
    186c:	00603333          	snez	t1,t1
    1870:	00686533          	or	a0,a6,t1
    1874:	00000593          	li	a1,0
    1878:	fb5ff06f          	j	182c <__adddf3+0x4a4>
    187c:	00a7e533          	or	a0,a5,a0
    1880:	00a03533          	snez	a0,a0
    1884:	ff1ff06f          	j	1874 <__adddf3+0x4ec>
    1888:	00148593          	add	a1,s1,1
    188c:	7fe5f593          	and	a1,a1,2046
    1890:	08059663          	bnez	a1,191c <__adddf3+0x594>
    1894:	00a7e833          	or	a6,a5,a0
    1898:	00c765b3          	or	a1,a4,a2
    189c:	06049063          	bnez	s1,18fc <__adddf3+0x574>
    18a0:	00081c63          	bnez	a6,18b8 <__adddf3+0x530>
    18a4:	10058e63          	beqz	a1,19c0 <__adddf3+0x638>
    18a8:	00070793          	mv	a5,a4
    18ac:	00060513          	mv	a0,a2
    18b0:	00068913          	mv	s2,a3
    18b4:	d75ff06f          	j	1628 <__adddf3+0x2a0>
    18b8:	d60588e3          	beqz	a1,1628 <__adddf3+0x2a0>
    18bc:	40c50833          	sub	a6,a0,a2
    18c0:	010538b3          	sltu	a7,a0,a6
    18c4:	40e785b3          	sub	a1,a5,a4
    18c8:	411585b3          	sub	a1,a1,a7
    18cc:	00859893          	sll	a7,a1,0x8
    18d0:	0008dc63          	bgez	a7,18e8 <__adddf3+0x560>
    18d4:	40a60533          	sub	a0,a2,a0
    18d8:	40f70733          	sub	a4,a4,a5
    18dc:	00a63633          	sltu	a2,a2,a0
    18e0:	40c707b3          	sub	a5,a4,a2
    18e4:	fcdff06f          	j	18b0 <__adddf3+0x528>
    18e8:	00b86533          	or	a0,a6,a1
    18ec:	18050463          	beqz	a0,1a74 <__adddf3+0x6ec>
    18f0:	00058793          	mv	a5,a1
    18f4:	00080513          	mv	a0,a6
    18f8:	d31ff06f          	j	1628 <__adddf3+0x2a0>
    18fc:	00081c63          	bnez	a6,1914 <__adddf3+0x58c>
    1900:	d4058ee3          	beqz	a1,165c <__adddf3+0x2d4>
    1904:	00070793          	mv	a5,a4
    1908:	00060513          	mv	a0,a2
    190c:	00068913          	mv	s2,a3
    1910:	b1dff06f          	j	142c <__adddf3+0xa4>
    1914:	b0058ce3          	beqz	a1,142c <__adddf3+0xa4>
    1918:	d45ff06f          	j	165c <__adddf3+0x2d4>
    191c:	40c505b3          	sub	a1,a0,a2
    1920:	00b53833          	sltu	a6,a0,a1
    1924:	40e78433          	sub	s0,a5,a4
    1928:	41040433          	sub	s0,s0,a6
    192c:	00841813          	sll	a6,s0,0x8
    1930:	00058993          	mv	s3,a1
    1934:	08085063          	bgez	a6,19b4 <__adddf3+0x62c>
    1938:	40a609b3          	sub	s3,a2,a0
    193c:	40f70433          	sub	s0,a4,a5
    1940:	01363633          	sltu	a2,a2,s3
    1944:	40c40433          	sub	s0,s0,a2
    1948:	00068913          	mv	s2,a3
    194c:	06040e63          	beqz	s0,19c8 <__adddf3+0x640>
    1950:	00040513          	mv	a0,s0
    1954:	4d4020ef          	jal	3e28 <__clzsi2>
    1958:	ff850693          	add	a3,a0,-8
    195c:	02000793          	li	a5,32
    1960:	40d787b3          	sub	a5,a5,a3
    1964:	00d41433          	sll	s0,s0,a3
    1968:	00f9d7b3          	srl	a5,s3,a5
    196c:	0087e7b3          	or	a5,a5,s0
    1970:	00d99433          	sll	s0,s3,a3
    1974:	0a96c463          	blt	a3,s1,1a1c <__adddf3+0x694>
    1978:	409686b3          	sub	a3,a3,s1
    197c:	00168613          	add	a2,a3,1
    1980:	01f00713          	li	a4,31
    1984:	06c74263          	blt	a4,a2,19e8 <__adddf3+0x660>
    1988:	02000713          	li	a4,32
    198c:	40c70733          	sub	a4,a4,a2
    1990:	00e79533          	sll	a0,a5,a4
    1994:	00c456b3          	srl	a3,s0,a2
    1998:	00e41733          	sll	a4,s0,a4
    199c:	00d56533          	or	a0,a0,a3
    19a0:	00e03733          	snez	a4,a4
    19a4:	00e56533          	or	a0,a0,a4
    19a8:	00c7d7b3          	srl	a5,a5,a2
    19ac:	00000493          	li	s1,0
    19b0:	c79ff06f          	j	1628 <__adddf3+0x2a0>
    19b4:	0085e5b3          	or	a1,a1,s0
    19b8:	f8059ae3          	bnez	a1,194c <__adddf3+0x5c4>
    19bc:	00000493          	li	s1,0
    19c0:	00000913          	li	s2,0
    19c4:	08c0006f          	j	1a50 <__adddf3+0x6c8>
    19c8:	00098513          	mv	a0,s3
    19cc:	45c020ef          	jal	3e28 <__clzsi2>
    19d0:	01850693          	add	a3,a0,24
    19d4:	01f00793          	li	a5,31
    19d8:	f8d7d2e3          	bge	a5,a3,195c <__adddf3+0x5d4>
    19dc:	ff850793          	add	a5,a0,-8
    19e0:	00f997b3          	sll	a5,s3,a5
    19e4:	f91ff06f          	j	1974 <__adddf3+0x5ec>
    19e8:	fe168693          	add	a3,a3,-31
    19ec:	00d7d533          	srl	a0,a5,a3
    19f0:	02000693          	li	a3,32
    19f4:	00000713          	li	a4,0
    19f8:	00d60863          	beq	a2,a3,1a08 <__adddf3+0x680>
    19fc:	04000713          	li	a4,64
    1a00:	40c70733          	sub	a4,a4,a2
    1a04:	00e79733          	sll	a4,a5,a4
    1a08:	00e46733          	or	a4,s0,a4
    1a0c:	00e03733          	snez	a4,a4
    1a10:	00e56533          	or	a0,a0,a4
    1a14:	00000793          	li	a5,0
    1a18:	f95ff06f          	j	19ac <__adddf3+0x624>
    1a1c:	ff800737          	lui	a4,0xff800
    1a20:	fff70713          	add	a4,a4,-1 # ff7fffff <__heap_start+0xff7fafff>
    1a24:	40d484b3          	sub	s1,s1,a3
    1a28:	00e7f7b3          	and	a5,a5,a4
    1a2c:	00040513          	mv	a0,s0
    1a30:	bf9ff06f          	j	1628 <__adddf3+0x2a0>
    1a34:	00070793          	mv	a5,a4
    1a38:	00060513          	mv	a0,a2
    1a3c:	c5dff06f          	j	1698 <__adddf3+0x310>
    1a40:	00070793          	mv	a5,a4
    1a44:	00060513          	mv	a0,a2
    1a48:	be1ff06f          	j	1628 <__adddf3+0x2a0>
    1a4c:	7ff00493          	li	s1,2047
    1a50:	00000793          	li	a5,0
    1a54:	00000513          	li	a0,0
    1a58:	0240006f          	j	1a7c <__adddf3+0x6f4>
    1a5c:	00080493          	mv	s1,a6
    1a60:	bc9ff06f          	j	1628 <__adddf3+0x2a0>
    1a64:	00070793          	mv	a5,a4
    1a68:	00060513          	mv	a0,a2
    1a6c:	00080493          	mv	s1,a6
    1a70:	e41ff06f          	j	18b0 <__adddf3+0x528>
    1a74:	00000793          	li	a5,0
    1a78:	00000913          	li	s2,0
    1a7c:	00879713          	sll	a4,a5,0x8
    1a80:	00075e63          	bgez	a4,1a9c <__adddf3+0x714>
    1a84:	00148493          	add	s1,s1,1
    1a88:	7ff00713          	li	a4,2047
    1a8c:	08e48263          	beq	s1,a4,1b10 <__adddf3+0x788>
    1a90:	ff800737          	lui	a4,0xff800
    1a94:	fff70713          	add	a4,a4,-1 # ff7fffff <__heap_start+0xff7fafff>
    1a98:	00e7f7b3          	and	a5,a5,a4
    1a9c:	01d79693          	sll	a3,a5,0x1d
    1aa0:	00355513          	srl	a0,a0,0x3
    1aa4:	7ff00713          	li	a4,2047
    1aa8:	00a6e6b3          	or	a3,a3,a0
    1aac:	0037d793          	srl	a5,a5,0x3
    1ab0:	00e49e63          	bne	s1,a4,1acc <__adddf3+0x744>
    1ab4:	00f6e6b3          	or	a3,a3,a5
    1ab8:	00000793          	li	a5,0
    1abc:	00068863          	beqz	a3,1acc <__adddf3+0x744>
    1ac0:	000807b7          	lui	a5,0x80
    1ac4:	00000693          	li	a3,0
    1ac8:	00000913          	li	s2,0
    1acc:	01449713          	sll	a4,s1,0x14
    1ad0:	7ff00637          	lui	a2,0x7ff00
    1ad4:	00c79793          	sll	a5,a5,0xc
    1ad8:	00c77733          	and	a4,a4,a2
    1adc:	01c12083          	lw	ra,28(sp)
    1ae0:	01812403          	lw	s0,24(sp)
    1ae4:	00c7d793          	srl	a5,a5,0xc
    1ae8:	00f767b3          	or	a5,a4,a5
    1aec:	01f91713          	sll	a4,s2,0x1f
    1af0:	00e7e633          	or	a2,a5,a4
    1af4:	01412483          	lw	s1,20(sp)
    1af8:	01012903          	lw	s2,16(sp)
    1afc:	00c12983          	lw	s3,12(sp)
    1b00:	00068513          	mv	a0,a3
    1b04:	00060593          	mv	a1,a2
    1b08:	02010113          	add	sp,sp,32
    1b0c:	00008067          	ret
    1b10:	00000793          	li	a5,0
    1b14:	00000513          	li	a0,0
    1b18:	f85ff06f          	j	1a9c <__adddf3+0x714>

00001b1c <__divdf3>:
    1b1c:	fb010113          	add	sp,sp,-80
    1b20:	05212023          	sw	s2,64(sp)
    1b24:	0145d913          	srl	s2,a1,0x14
    1b28:	04912223          	sw	s1,68(sp)
    1b2c:	03312e23          	sw	s3,60(sp)
    1b30:	03412c23          	sw	s4,56(sp)
    1b34:	03512a23          	sw	s5,52(sp)
    1b38:	03712623          	sw	s7,44(sp)
    1b3c:	00c59493          	sll	s1,a1,0xc
    1b40:	04112623          	sw	ra,76(sp)
    1b44:	04812423          	sw	s0,72(sp)
    1b48:	03612823          	sw	s6,48(sp)
    1b4c:	03812423          	sw	s8,40(sp)
    1b50:	03912223          	sw	s9,36(sp)
    1b54:	03a12023          	sw	s10,32(sp)
    1b58:	01b12e23          	sw	s11,28(sp)
    1b5c:	7ff97913          	and	s2,s2,2047
    1b60:	00050993          	mv	s3,a0
    1b64:	00060b93          	mv	s7,a2
    1b68:	00068a13          	mv	s4,a3
    1b6c:	00c4d493          	srl	s1,s1,0xc
    1b70:	01f5da93          	srl	s5,a1,0x1f
    1b74:	0a090063          	beqz	s2,1c14 <__divdf3+0xf8>
    1b78:	7ff00793          	li	a5,2047
    1b7c:	10f90063          	beq	s2,a5,1c7c <__divdf3+0x160>
    1b80:	01d55d13          	srl	s10,a0,0x1d
    1b84:	00349493          	sll	s1,s1,0x3
    1b88:	009d6d33          	or	s10,s10,s1
    1b8c:	008007b7          	lui	a5,0x800
    1b90:	00fd6d33          	or	s10,s10,a5
    1b94:	00351413          	sll	s0,a0,0x3
    1b98:	c0190913          	add	s2,s2,-1023
    1b9c:	00000b13          	li	s6,0
    1ba0:	014a5713          	srl	a4,s4,0x14
    1ba4:	00ca1993          	sll	s3,s4,0xc
    1ba8:	7ff77713          	and	a4,a4,2047
    1bac:	00c9d993          	srl	s3,s3,0xc
    1bb0:	01fa5a13          	srl	s4,s4,0x1f
    1bb4:	10070263          	beqz	a4,1cb8 <__divdf3+0x19c>
    1bb8:	7ff00793          	li	a5,2047
    1bbc:	16f70663          	beq	a4,a5,1d28 <__divdf3+0x20c>
    1bc0:	00399993          	sll	s3,s3,0x3
    1bc4:	01dbd793          	srl	a5,s7,0x1d
    1bc8:	0137e7b3          	or	a5,a5,s3
    1bcc:	008009b7          	lui	s3,0x800
    1bd0:	0137e9b3          	or	s3,a5,s3
    1bd4:	003b9693          	sll	a3,s7,0x3
    1bd8:	c0170713          	add	a4,a4,-1023
    1bdc:	00000793          	li	a5,0
    1be0:	40e90933          	sub	s2,s2,a4
    1be4:	002b1713          	sll	a4,s6,0x2
    1be8:	00f76733          	or	a4,a4,a5
    1bec:	fff70713          	add	a4,a4,-1
    1bf0:	00e00613          	li	a2,14
    1bf4:	014ac4b3          	xor	s1,s5,s4
    1bf8:	16e66463          	bltu	a2,a4,1d60 <__divdf3+0x244>
    1bfc:	00004637          	lui	a2,0x4
    1c00:	00271713          	sll	a4,a4,0x2
    1c04:	4bc60613          	add	a2,a2,1212 # 44bc <main+0x648>
    1c08:	00c70733          	add	a4,a4,a2
    1c0c:	00072703          	lw	a4,0(a4)
    1c10:	00070067          	jr	a4
    1c14:	00a4ed33          	or	s10,s1,a0
    1c18:	060d0e63          	beqz	s10,1c94 <__divdf3+0x178>
    1c1c:	02048e63          	beqz	s1,1c58 <__divdf3+0x13c>
    1c20:	00048513          	mv	a0,s1
    1c24:	204020ef          	jal	3e28 <__clzsi2>
    1c28:	ff550793          	add	a5,a0,-11
    1c2c:	01d00d13          	li	s10,29
    1c30:	ff850713          	add	a4,a0,-8
    1c34:	40fd0d33          	sub	s10,s10,a5
    1c38:	00e494b3          	sll	s1,s1,a4
    1c3c:	01a9dd33          	srl	s10,s3,s10
    1c40:	009d6d33          	or	s10,s10,s1
    1c44:	00e994b3          	sll	s1,s3,a4
    1c48:	c0d00913          	li	s2,-1011
    1c4c:	40a90933          	sub	s2,s2,a0
    1c50:	00048413          	mv	s0,s1
    1c54:	f49ff06f          	j	1b9c <__divdf3+0x80>
    1c58:	1d0020ef          	jal	3e28 <__clzsi2>
    1c5c:	00050d13          	mv	s10,a0
    1c60:	015d0793          	add	a5,s10,21
    1c64:	01c00713          	li	a4,28
    1c68:	02050513          	add	a0,a0,32
    1c6c:	fcf750e3          	bge	a4,a5,1c2c <__divdf3+0x110>
    1c70:	ff8d0d13          	add	s10,s10,-8
    1c74:	01a99d33          	sll	s10,s3,s10
    1c78:	fd1ff06f          	j	1c48 <__divdf3+0x12c>
    1c7c:	00a4ed33          	or	s10,s1,a0
    1c80:	020d1263          	bnez	s10,1ca4 <__divdf3+0x188>
    1c84:	00000413          	li	s0,0
    1c88:	7ff00913          	li	s2,2047
    1c8c:	00200b13          	li	s6,2
    1c90:	f11ff06f          	j	1ba0 <__divdf3+0x84>
    1c94:	00000413          	li	s0,0
    1c98:	00000913          	li	s2,0
    1c9c:	00100b13          	li	s6,1
    1ca0:	f01ff06f          	j	1ba0 <__divdf3+0x84>
    1ca4:	00050413          	mv	s0,a0
    1ca8:	00048d13          	mv	s10,s1
    1cac:	7ff00913          	li	s2,2047
    1cb0:	00300b13          	li	s6,3
    1cb4:	eedff06f          	j	1ba0 <__divdf3+0x84>
    1cb8:	0179e6b3          	or	a3,s3,s7
    1cbc:	08068263          	beqz	a3,1d40 <__divdf3+0x224>
    1cc0:	04098063          	beqz	s3,1d00 <__divdf3+0x1e4>
    1cc4:	00098513          	mv	a0,s3
    1cc8:	160020ef          	jal	3e28 <__clzsi2>
    1ccc:	ff550713          	add	a4,a0,-11
    1cd0:	01d00793          	li	a5,29
    1cd4:	ff850693          	add	a3,a0,-8
    1cd8:	40e787b3          	sub	a5,a5,a4
    1cdc:	00d999b3          	sll	s3,s3,a3
    1ce0:	00fbd7b3          	srl	a5,s7,a5
    1ce4:	0137e7b3          	or	a5,a5,s3
    1ce8:	00db99b3          	sll	s3,s7,a3
    1cec:	c0d00713          	li	a4,-1011
    1cf0:	00098693          	mv	a3,s3
    1cf4:	40a70733          	sub	a4,a4,a0
    1cf8:	00078993          	mv	s3,a5
    1cfc:	ee1ff06f          	j	1bdc <__divdf3+0xc0>
    1d00:	000b8513          	mv	a0,s7
    1d04:	124020ef          	jal	3e28 <__clzsi2>
    1d08:	00050793          	mv	a5,a0
    1d0c:	01578713          	add	a4,a5,21 # 800015 <__heap_start+0x7fb015>
    1d10:	01c00693          	li	a3,28
    1d14:	02050513          	add	a0,a0,32
    1d18:	fae6dce3          	bge	a3,a4,1cd0 <__divdf3+0x1b4>
    1d1c:	ff878793          	add	a5,a5,-8
    1d20:	00fb97b3          	sll	a5,s7,a5
    1d24:	fc9ff06f          	j	1cec <__divdf3+0x1d0>
    1d28:	0179e6b3          	or	a3,s3,s7
    1d2c:	02069263          	bnez	a3,1d50 <__divdf3+0x234>
    1d30:	00000993          	li	s3,0
    1d34:	7ff00713          	li	a4,2047
    1d38:	00200793          	li	a5,2
    1d3c:	ea5ff06f          	j	1be0 <__divdf3+0xc4>
    1d40:	00000993          	li	s3,0
    1d44:	00000713          	li	a4,0
    1d48:	00100793          	li	a5,1
    1d4c:	e95ff06f          	j	1be0 <__divdf3+0xc4>
    1d50:	000b8693          	mv	a3,s7
    1d54:	7ff00713          	li	a4,2047
    1d58:	00300793          	li	a5,3
    1d5c:	e85ff06f          	j	1be0 <__divdf3+0xc4>
    1d60:	01a9e663          	bltu	s3,s10,1d6c <__divdf3+0x250>
    1d64:	453d1663          	bne	s10,s3,21b0 <__divdf3+0x694>
    1d68:	44d46463          	bltu	s0,a3,21b0 <__divdf3+0x694>
    1d6c:	01fd1713          	sll	a4,s10,0x1f
    1d70:	00145793          	srl	a5,s0,0x1
    1d74:	01f41d93          	sll	s11,s0,0x1f
    1d78:	001d5d13          	srl	s10,s10,0x1
    1d7c:	00f76433          	or	s0,a4,a5
    1d80:	0186dc13          	srl	s8,a3,0x18
    1d84:	00899b13          	sll	s6,s3,0x8
    1d88:	016c6c33          	or	s8,s8,s6
    1d8c:	010b5b13          	srl	s6,s6,0x10
    1d90:	000b0593          	mv	a1,s6
    1d94:	010c1b93          	sll	s7,s8,0x10
    1d98:	000d0513          	mv	a0,s10
    1d9c:	00869c93          	sll	s9,a3,0x8
    1da0:	010bdb93          	srl	s7,s7,0x10
    1da4:	7d9010ef          	jal	3d7c <__hidden___udivsi3>
    1da8:	00050593          	mv	a1,a0
    1dac:	00050a93          	mv	s5,a0
    1db0:	000b8513          	mv	a0,s7
    1db4:	79d010ef          	jal	3d50 <__mulsi3>
    1db8:	00050993          	mv	s3,a0
    1dbc:	000b0593          	mv	a1,s6
    1dc0:	000d0513          	mv	a0,s10
    1dc4:	000020ef          	jal	3dc4 <__umodsi3>
    1dc8:	01051513          	sll	a0,a0,0x10
    1dcc:	01045793          	srl	a5,s0,0x10
    1dd0:	00a7e7b3          	or	a5,a5,a0
    1dd4:	000a8a13          	mv	s4,s5
    1dd8:	0137fe63          	bgeu	a5,s3,1df4 <__divdf3+0x2d8>
    1ddc:	00fc07b3          	add	a5,s8,a5
    1de0:	fffa8a13          	add	s4,s5,-1
    1de4:	0187e863          	bltu	a5,s8,1df4 <__divdf3+0x2d8>
    1de8:	0137f663          	bgeu	a5,s3,1df4 <__divdf3+0x2d8>
    1dec:	ffea8a13          	add	s4,s5,-2
    1df0:	018787b3          	add	a5,a5,s8
    1df4:	413789b3          	sub	s3,a5,s3
    1df8:	000b0593          	mv	a1,s6
    1dfc:	00098513          	mv	a0,s3
    1e00:	77d010ef          	jal	3d7c <__hidden___udivsi3>
    1e04:	00050593          	mv	a1,a0
    1e08:	00050d13          	mv	s10,a0
    1e0c:	000b8513          	mv	a0,s7
    1e10:	741010ef          	jal	3d50 <__mulsi3>
    1e14:	00050a93          	mv	s5,a0
    1e18:	000b0593          	mv	a1,s6
    1e1c:	00098513          	mv	a0,s3
    1e20:	7a5010ef          	jal	3dc4 <__umodsi3>
    1e24:	01041793          	sll	a5,s0,0x10
    1e28:	01051513          	sll	a0,a0,0x10
    1e2c:	0107d793          	srl	a5,a5,0x10
    1e30:	00a7e7b3          	or	a5,a5,a0
    1e34:	000d0713          	mv	a4,s10
    1e38:	0157fe63          	bgeu	a5,s5,1e54 <__divdf3+0x338>
    1e3c:	00fc07b3          	add	a5,s8,a5
    1e40:	fffd0713          	add	a4,s10,-1
    1e44:	0187e863          	bltu	a5,s8,1e54 <__divdf3+0x338>
    1e48:	0157f663          	bgeu	a5,s5,1e54 <__divdf3+0x338>
    1e4c:	ffed0713          	add	a4,s10,-2
    1e50:	018787b3          	add	a5,a5,s8
    1e54:	010a1813          	sll	a6,s4,0x10
    1e58:	00010eb7          	lui	t4,0x10
    1e5c:	00e86833          	or	a6,a6,a4
    1e60:	fffe8a13          	add	s4,t4,-1 # ffff <__heap_start+0xafff>
    1e64:	014878b3          	and	a7,a6,s4
    1e68:	010cd693          	srl	a3,s9,0x10
    1e6c:	014cfa33          	and	s4,s9,s4
    1e70:	415787b3          	sub	a5,a5,s5
    1e74:	01085713          	srl	a4,a6,0x10
    1e78:	00d12623          	sw	a3,12(sp)
    1e7c:	00088513          	mv	a0,a7
    1e80:	000a0593          	mv	a1,s4
    1e84:	6cd010ef          	jal	3d50 <__mulsi3>
    1e88:	00050313          	mv	t1,a0
    1e8c:	010cd593          	srl	a1,s9,0x10
    1e90:	00088513          	mv	a0,a7
    1e94:	6bd010ef          	jal	3d50 <__mulsi3>
    1e98:	00050893          	mv	a7,a0
    1e9c:	000a0593          	mv	a1,s4
    1ea0:	00070513          	mv	a0,a4
    1ea4:	6ad010ef          	jal	3d50 <__mulsi3>
    1ea8:	00050e13          	mv	t3,a0
    1eac:	010cd593          	srl	a1,s9,0x10
    1eb0:	00070513          	mv	a0,a4
    1eb4:	69d010ef          	jal	3d50 <__mulsi3>
    1eb8:	01035713          	srl	a4,t1,0x10
    1ebc:	01c888b3          	add	a7,a7,t3
    1ec0:	01170733          	add	a4,a4,a7
    1ec4:	00050613          	mv	a2,a0
    1ec8:	01c77463          	bgeu	a4,t3,1ed0 <__divdf3+0x3b4>
    1ecc:	01d50633          	add	a2,a0,t4
    1ed0:	01075693          	srl	a3,a4,0x10
    1ed4:	00c686b3          	add	a3,a3,a2
    1ed8:	00010637          	lui	a2,0x10
    1edc:	fff60613          	add	a2,a2,-1 # ffff <__heap_start+0xafff>
    1ee0:	00c77733          	and	a4,a4,a2
    1ee4:	01071713          	sll	a4,a4,0x10
    1ee8:	00c37333          	and	t1,t1,a2
    1eec:	00670733          	add	a4,a4,t1
    1ef0:	00d7e863          	bltu	a5,a3,1f00 <__divdf3+0x3e4>
    1ef4:	00080993          	mv	s3,a6
    1ef8:	04d79863          	bne	a5,a3,1f48 <__divdf3+0x42c>
    1efc:	04edf663          	bgeu	s11,a4,1f48 <__divdf3+0x42c>
    1f00:	019d8633          	add	a2,s11,s9
    1f04:	01b635b3          	sltu	a1,a2,s11
    1f08:	01858533          	add	a0,a1,s8
    1f0c:	00a787b3          	add	a5,a5,a0
    1f10:	fff80993          	add	s3,a6,-1
    1f14:	00060d93          	mv	s11,a2
    1f18:	00fc6663          	bltu	s8,a5,1f24 <__divdf3+0x408>
    1f1c:	02fc1663          	bne	s8,a5,1f48 <__divdf3+0x42c>
    1f20:	02059463          	bnez	a1,1f48 <__divdf3+0x42c>
    1f24:	00d7e663          	bltu	a5,a3,1f30 <__divdf3+0x414>
    1f28:	02f69063          	bne	a3,a5,1f48 <__divdf3+0x42c>
    1f2c:	00e67e63          	bgeu	a2,a4,1f48 <__divdf3+0x42c>
    1f30:	00cc8633          	add	a2,s9,a2
    1f34:	00060d93          	mv	s11,a2
    1f38:	01963633          	sltu	a2,a2,s9
    1f3c:	01860633          	add	a2,a2,s8
    1f40:	ffe80993          	add	s3,a6,-2
    1f44:	00c787b3          	add	a5,a5,a2
    1f48:	40ed8d33          	sub	s10,s11,a4
    1f4c:	40d787b3          	sub	a5,a5,a3
    1f50:	01adbdb3          	sltu	s11,s11,s10
    1f54:	41b78433          	sub	s0,a5,s11
    1f58:	fff00693          	li	a3,-1
    1f5c:	188c0e63          	beq	s8,s0,20f8 <__divdf3+0x5dc>
    1f60:	000b0593          	mv	a1,s6
    1f64:	00040513          	mv	a0,s0
    1f68:	615010ef          	jal	3d7c <__hidden___udivsi3>
    1f6c:	00050593          	mv	a1,a0
    1f70:	00050a93          	mv	s5,a0
    1f74:	000b8513          	mv	a0,s7
    1f78:	5d9010ef          	jal	3d50 <__mulsi3>
    1f7c:	00050d93          	mv	s11,a0
    1f80:	000b0593          	mv	a1,s6
    1f84:	00040513          	mv	a0,s0
    1f88:	63d010ef          	jal	3dc4 <__umodsi3>
    1f8c:	01051513          	sll	a0,a0,0x10
    1f90:	010d5693          	srl	a3,s10,0x10
    1f94:	00a6e6b3          	or	a3,a3,a0
    1f98:	000a8413          	mv	s0,s5
    1f9c:	01b6fe63          	bgeu	a3,s11,1fb8 <__divdf3+0x49c>
    1fa0:	00dc06b3          	add	a3,s8,a3
    1fa4:	fffa8413          	add	s0,s5,-1
    1fa8:	0186e863          	bltu	a3,s8,1fb8 <__divdf3+0x49c>
    1fac:	01b6f663          	bgeu	a3,s11,1fb8 <__divdf3+0x49c>
    1fb0:	ffea8413          	add	s0,s5,-2
    1fb4:	018686b3          	add	a3,a3,s8
    1fb8:	41b68ab3          	sub	s5,a3,s11
    1fbc:	000b0593          	mv	a1,s6
    1fc0:	000a8513          	mv	a0,s5
    1fc4:	5b9010ef          	jal	3d7c <__hidden___udivsi3>
    1fc8:	00050593          	mv	a1,a0
    1fcc:	00050d93          	mv	s11,a0
    1fd0:	000b8513          	mv	a0,s7
    1fd4:	57d010ef          	jal	3d50 <__mulsi3>
    1fd8:	00050b93          	mv	s7,a0
    1fdc:	000b0593          	mv	a1,s6
    1fe0:	000a8513          	mv	a0,s5
    1fe4:	5e1010ef          	jal	3dc4 <__umodsi3>
    1fe8:	010d1793          	sll	a5,s10,0x10
    1fec:	01051513          	sll	a0,a0,0x10
    1ff0:	0107d793          	srl	a5,a5,0x10
    1ff4:	00a7e7b3          	or	a5,a5,a0
    1ff8:	000d8713          	mv	a4,s11
    1ffc:	0177fe63          	bgeu	a5,s7,2018 <__divdf3+0x4fc>
    2000:	00fc07b3          	add	a5,s8,a5
    2004:	fffd8713          	add	a4,s11,-1
    2008:	0187e863          	bltu	a5,s8,2018 <__divdf3+0x4fc>
    200c:	0177f663          	bgeu	a5,s7,2018 <__divdf3+0x4fc>
    2010:	ffed8713          	add	a4,s11,-2
    2014:	018787b3          	add	a5,a5,s8
    2018:	01041813          	sll	a6,s0,0x10
    201c:	00e86833          	or	a6,a6,a4
    2020:	01081893          	sll	a7,a6,0x10
    2024:	0108d893          	srl	a7,a7,0x10
    2028:	417787b3          	sub	a5,a5,s7
    202c:	01085713          	srl	a4,a6,0x10
    2030:	00088513          	mv	a0,a7
    2034:	000a0593          	mv	a1,s4
    2038:	519010ef          	jal	3d50 <__mulsi3>
    203c:	00050313          	mv	t1,a0
    2040:	010cd593          	srl	a1,s9,0x10
    2044:	00088513          	mv	a0,a7
    2048:	509010ef          	jal	3d50 <__mulsi3>
    204c:	00050893          	mv	a7,a0
    2050:	000a0593          	mv	a1,s4
    2054:	00070513          	mv	a0,a4
    2058:	4f9010ef          	jal	3d50 <__mulsi3>
    205c:	00050e13          	mv	t3,a0
    2060:	010cd593          	srl	a1,s9,0x10
    2064:	00070513          	mv	a0,a4
    2068:	4e9010ef          	jal	3d50 <__mulsi3>
    206c:	01035713          	srl	a4,t1,0x10
    2070:	01c888b3          	add	a7,a7,t3
    2074:	01170733          	add	a4,a4,a7
    2078:	00050693          	mv	a3,a0
    207c:	01c77663          	bgeu	a4,t3,2088 <__divdf3+0x56c>
    2080:	00010637          	lui	a2,0x10
    2084:	00c506b3          	add	a3,a0,a2
    2088:	01075613          	srl	a2,a4,0x10
    208c:	00d60633          	add	a2,a2,a3
    2090:	000106b7          	lui	a3,0x10
    2094:	fff68693          	add	a3,a3,-1 # ffff <__heap_start+0xafff>
    2098:	00d77733          	and	a4,a4,a3
    209c:	01071713          	sll	a4,a4,0x10
    20a0:	00d37333          	and	t1,t1,a3
    20a4:	00670733          	add	a4,a4,t1
    20a8:	00c7e863          	bltu	a5,a2,20b8 <__divdf3+0x59c>
    20ac:	24c79463          	bne	a5,a2,22f4 <__divdf3+0x7d8>
    20b0:	00080693          	mv	a3,a6
    20b4:	04070263          	beqz	a4,20f8 <__divdf3+0x5dc>
    20b8:	00fc07b3          	add	a5,s8,a5
    20bc:	fff80693          	add	a3,a6,-1
    20c0:	00078593          	mv	a1,a5
    20c4:	0387e463          	bltu	a5,s8,20ec <__divdf3+0x5d0>
    20c8:	00c7e663          	bltu	a5,a2,20d4 <__divdf3+0x5b8>
    20cc:	22c79263          	bne	a5,a2,22f0 <__divdf3+0x7d4>
    20d0:	02ecf063          	bgeu	s9,a4,20f0 <__divdf3+0x5d4>
    20d4:	001c9513          	sll	a0,s9,0x1
    20d8:	019535b3          	sltu	a1,a0,s9
    20dc:	018585b3          	add	a1,a1,s8
    20e0:	ffe80693          	add	a3,a6,-2
    20e4:	00b785b3          	add	a1,a5,a1
    20e8:	00050c93          	mv	s9,a0
    20ec:	00c59463          	bne	a1,a2,20f4 <__divdf3+0x5d8>
    20f0:	01970463          	beq	a4,s9,20f8 <__divdf3+0x5dc>
    20f4:	0016e693          	or	a3,a3,1
    20f8:	3ff90713          	add	a4,s2,1023
    20fc:	10e05a63          	blez	a4,2210 <__divdf3+0x6f4>
    2100:	0076f793          	and	a5,a3,7
    2104:	02078063          	beqz	a5,2124 <__divdf3+0x608>
    2108:	00f6f793          	and	a5,a3,15
    210c:	00400613          	li	a2,4
    2110:	00c78a63          	beq	a5,a2,2124 <__divdf3+0x608>
    2114:	00468793          	add	a5,a3,4
    2118:	00d7b633          	sltu	a2,a5,a3
    211c:	00c989b3          	add	s3,s3,a2
    2120:	00078693          	mv	a3,a5
    2124:	00799793          	sll	a5,s3,0x7
    2128:	0007da63          	bgez	a5,213c <__divdf3+0x620>
    212c:	ff0007b7          	lui	a5,0xff000
    2130:	fff78793          	add	a5,a5,-1 # feffffff <__heap_start+0xfeffafff>
    2134:	00f9f9b3          	and	s3,s3,a5
    2138:	40090713          	add	a4,s2,1024
    213c:	7fe00793          	li	a5,2046
    2140:	0ae7c263          	blt	a5,a4,21e4 <__divdf3+0x6c8>
    2144:	0036d693          	srl	a3,a3,0x3
    2148:	01d99793          	sll	a5,s3,0x1d
    214c:	00d7e6b3          	or	a3,a5,a3
    2150:	0039d593          	srl	a1,s3,0x3
    2154:	00c59593          	sll	a1,a1,0xc
    2158:	04c12083          	lw	ra,76(sp)
    215c:	04812403          	lw	s0,72(sp)
    2160:	00c5d593          	srl	a1,a1,0xc
    2164:	01471713          	sll	a4,a4,0x14
    2168:	00b76733          	or	a4,a4,a1
    216c:	01f49493          	sll	s1,s1,0x1f
    2170:	009767b3          	or	a5,a4,s1
    2174:	04012903          	lw	s2,64(sp)
    2178:	04412483          	lw	s1,68(sp)
    217c:	03c12983          	lw	s3,60(sp)
    2180:	03812a03          	lw	s4,56(sp)
    2184:	03412a83          	lw	s5,52(sp)
    2188:	03012b03          	lw	s6,48(sp)
    218c:	02c12b83          	lw	s7,44(sp)
    2190:	02812c03          	lw	s8,40(sp)
    2194:	02412c83          	lw	s9,36(sp)
    2198:	02012d03          	lw	s10,32(sp)
    219c:	01c12d83          	lw	s11,28(sp)
    21a0:	00068513          	mv	a0,a3
    21a4:	00078593          	mv	a1,a5
    21a8:	05010113          	add	sp,sp,80
    21ac:	00008067          	ret
    21b0:	fff90913          	add	s2,s2,-1
    21b4:	00000d93          	li	s11,0
    21b8:	bc9ff06f          	j	1d80 <__divdf3+0x264>
    21bc:	000a8493          	mv	s1,s5
    21c0:	000d0993          	mv	s3,s10
    21c4:	00040693          	mv	a3,s0
    21c8:	000b0793          	mv	a5,s6
    21cc:	00300713          	li	a4,3
    21d0:	0ee78863          	beq	a5,a4,22c0 <__divdf3+0x7a4>
    21d4:	00100713          	li	a4,1
    21d8:	0ee78e63          	beq	a5,a4,22d4 <__divdf3+0x7b8>
    21dc:	00200713          	li	a4,2
    21e0:	f0e79ce3          	bne	a5,a4,20f8 <__divdf3+0x5dc>
    21e4:	00000593          	li	a1,0
    21e8:	00000693          	li	a3,0
    21ec:	7ff00713          	li	a4,2047
    21f0:	f65ff06f          	j	2154 <__divdf3+0x638>
    21f4:	000a0493          	mv	s1,s4
    21f8:	fd5ff06f          	j	21cc <__divdf3+0x6b0>
    21fc:	000809b7          	lui	s3,0x80
    2200:	00000693          	li	a3,0
    2204:	00000493          	li	s1,0
    2208:	00300793          	li	a5,3
    220c:	fc1ff06f          	j	21cc <__divdf3+0x6b0>
    2210:	00100593          	li	a1,1
    2214:	40e585b3          	sub	a1,a1,a4
    2218:	03800793          	li	a5,56
    221c:	0ab7cc63          	blt	a5,a1,22d4 <__divdf3+0x7b8>
    2220:	01f00793          	li	a5,31
    2224:	06b7c463          	blt	a5,a1,228c <__divdf3+0x770>
    2228:	41e90913          	add	s2,s2,1054
    222c:	012997b3          	sll	a5,s3,s2
    2230:	00b6d733          	srl	a4,a3,a1
    2234:	01269933          	sll	s2,a3,s2
    2238:	00e7e7b3          	or	a5,a5,a4
    223c:	01203933          	snez	s2,s2
    2240:	0127e7b3          	or	a5,a5,s2
    2244:	00b9d5b3          	srl	a1,s3,a1
    2248:	0077f713          	and	a4,a5,7
    224c:	02070063          	beqz	a4,226c <__divdf3+0x750>
    2250:	00f7f713          	and	a4,a5,15
    2254:	00400693          	li	a3,4
    2258:	00d70a63          	beq	a4,a3,226c <__divdf3+0x750>
    225c:	00478713          	add	a4,a5,4
    2260:	00f736b3          	sltu	a3,a4,a5
    2264:	00d585b3          	add	a1,a1,a3
    2268:	00070793          	mv	a5,a4
    226c:	00859713          	sll	a4,a1,0x8
    2270:	06074863          	bltz	a4,22e0 <__divdf3+0x7c4>
    2274:	01d59693          	sll	a3,a1,0x1d
    2278:	0037d793          	srl	a5,a5,0x3
    227c:	00f6e6b3          	or	a3,a3,a5
    2280:	0035d593          	srl	a1,a1,0x3
    2284:	00000713          	li	a4,0
    2288:	ecdff06f          	j	2154 <__divdf3+0x638>
    228c:	fe100793          	li	a5,-31
    2290:	40e787b3          	sub	a5,a5,a4
    2294:	02000613          	li	a2,32
    2298:	00f9d7b3          	srl	a5,s3,a5
    229c:	00000713          	li	a4,0
    22a0:	00c58663          	beq	a1,a2,22ac <__divdf3+0x790>
    22a4:	43e90713          	add	a4,s2,1086
    22a8:	00e99733          	sll	a4,s3,a4
    22ac:	00d76733          	or	a4,a4,a3
    22b0:	00e03733          	snez	a4,a4
    22b4:	00e7e7b3          	or	a5,a5,a4
    22b8:	00000593          	li	a1,0
    22bc:	f8dff06f          	j	2248 <__divdf3+0x72c>
    22c0:	000805b7          	lui	a1,0x80
    22c4:	00000693          	li	a3,0
    22c8:	7ff00713          	li	a4,2047
    22cc:	00000493          	li	s1,0
    22d0:	e85ff06f          	j	2154 <__divdf3+0x638>
    22d4:	00000593          	li	a1,0
    22d8:	00000693          	li	a3,0
    22dc:	fa9ff06f          	j	2284 <__divdf3+0x768>
    22e0:	00000593          	li	a1,0
    22e4:	00000693          	li	a3,0
    22e8:	00100713          	li	a4,1
    22ec:	e69ff06f          	j	2154 <__divdf3+0x638>
    22f0:	00068813          	mv	a6,a3
    22f4:	00080693          	mv	a3,a6
    22f8:	dfdff06f          	j	20f4 <__divdf3+0x5d8>

000022fc <__muldf3>:
    22fc:	fd010113          	add	sp,sp,-48
    2300:	01512a23          	sw	s5,20(sp)
    2304:	0145da93          	srl	s5,a1,0x14
    2308:	02812423          	sw	s0,40(sp)
    230c:	02912223          	sw	s1,36(sp)
    2310:	03212023          	sw	s2,32(sp)
    2314:	01312e23          	sw	s3,28(sp)
    2318:	01612823          	sw	s6,16(sp)
    231c:	00c59493          	sll	s1,a1,0xc
    2320:	02112623          	sw	ra,44(sp)
    2324:	01412c23          	sw	s4,24(sp)
    2328:	01712623          	sw	s7,12(sp)
    232c:	7ffafa93          	and	s5,s5,2047
    2330:	00050413          	mv	s0,a0
    2334:	00060b13          	mv	s6,a2
    2338:	00068913          	mv	s2,a3
    233c:	00c4d493          	srl	s1,s1,0xc
    2340:	01f5d993          	srl	s3,a1,0x1f
    2344:	300a8e63          	beqz	s5,2660 <__muldf3+0x364>
    2348:	7ff00793          	li	a5,2047
    234c:	38fa8063          	beq	s5,a5,26cc <__muldf3+0x3d0>
    2350:	00349493          	sll	s1,s1,0x3
    2354:	01d55793          	srl	a5,a0,0x1d
    2358:	0097e7b3          	or	a5,a5,s1
    235c:	008004b7          	lui	s1,0x800
    2360:	0097e4b3          	or	s1,a5,s1
    2364:	00351a13          	sll	s4,a0,0x3
    2368:	c01a8a93          	add	s5,s5,-1023
    236c:	00000b93          	li	s7,0
    2370:	01495713          	srl	a4,s2,0x14
    2374:	00c91413          	sll	s0,s2,0xc
    2378:	7ff77713          	and	a4,a4,2047
    237c:	00c45413          	srl	s0,s0,0xc
    2380:	01f95913          	srl	s2,s2,0x1f
    2384:	38070063          	beqz	a4,2704 <__muldf3+0x408>
    2388:	7ff00793          	li	a5,2047
    238c:	3ef70463          	beq	a4,a5,2774 <__muldf3+0x478>
    2390:	00341413          	sll	s0,s0,0x3
    2394:	01db5793          	srl	a5,s6,0x1d
    2398:	0087e7b3          	or	a5,a5,s0
    239c:	00800437          	lui	s0,0x800
    23a0:	0087e433          	or	s0,a5,s0
    23a4:	c0170693          	add	a3,a4,-1023
    23a8:	003b1793          	sll	a5,s6,0x3
    23ac:	00000713          	li	a4,0
    23b0:	00da8ab3          	add	s5,s5,a3
    23b4:	002b9693          	sll	a3,s7,0x2
    23b8:	00e6e6b3          	or	a3,a3,a4
    23bc:	00a00613          	li	a2,10
    23c0:	001a8893          	add	a7,s5,1
    23c4:	4cd64663          	blt	a2,a3,2890 <__muldf3+0x594>
    23c8:	00200613          	li	a2,2
    23cc:	0129c833          	xor	a6,s3,s2
    23d0:	3cd64e63          	blt	a2,a3,27ac <__muldf3+0x4b0>
    23d4:	fff68693          	add	a3,a3,-1
    23d8:	00100613          	li	a2,1
    23dc:	3ed67a63          	bgeu	a2,a3,27d0 <__muldf3+0x4d4>
    23e0:	00010937          	lui	s2,0x10
    23e4:	fff90713          	add	a4,s2,-1 # ffff <__heap_start+0xafff>
    23e8:	010a5293          	srl	t0,s4,0x10
    23ec:	00e7ffb3          	and	t6,a5,a4
    23f0:	00ea7a33          	and	s4,s4,a4
    23f4:	0107df13          	srl	t5,a5,0x10
    23f8:	000a0513          	mv	a0,s4
    23fc:	000f8593          	mv	a1,t6
    2400:	151010ef          	jal	3d50 <__mulsi3>
    2404:	00050793          	mv	a5,a0
    2408:	000f0593          	mv	a1,t5
    240c:	000a0513          	mv	a0,s4
    2410:	141010ef          	jal	3d50 <__mulsi3>
    2414:	00050e93          	mv	t4,a0
    2418:	000f8593          	mv	a1,t6
    241c:	00028513          	mv	a0,t0
    2420:	131010ef          	jal	3d50 <__mulsi3>
    2424:	00050393          	mv	t2,a0
    2428:	000f0593          	mv	a1,t5
    242c:	00028513          	mv	a0,t0
    2430:	121010ef          	jal	3d50 <__mulsi3>
    2434:	0107d313          	srl	t1,a5,0x10
    2438:	007e8eb3          	add	t4,t4,t2
    243c:	01d30333          	add	t1,t1,t4
    2440:	00050e13          	mv	t3,a0
    2444:	00737463          	bgeu	t1,t2,244c <__muldf3+0x150>
    2448:	01250e33          	add	t3,a0,s2
    244c:	01035993          	srl	s3,t1,0x10
    2450:	00e37333          	and	t1,t1,a4
    2454:	00e7f7b3          	and	a5,a5,a4
    2458:	01031313          	sll	t1,t1,0x10
    245c:	00e47733          	and	a4,s0,a4
    2460:	00f30333          	add	t1,t1,a5
    2464:	01045913          	srl	s2,s0,0x10
    2468:	000a0513          	mv	a0,s4
    246c:	00070593          	mv	a1,a4
    2470:	0e1010ef          	jal	3d50 <__mulsi3>
    2474:	00050393          	mv	t2,a0
    2478:	00090593          	mv	a1,s2
    247c:	000a0513          	mv	a0,s4
    2480:	0d1010ef          	jal	3d50 <__mulsi3>
    2484:	00050e93          	mv	t4,a0
    2488:	00070593          	mv	a1,a4
    248c:	00028513          	mv	a0,t0
    2490:	0c1010ef          	jal	3d50 <__mulsi3>
    2494:	00050413          	mv	s0,a0
    2498:	00090593          	mv	a1,s2
    249c:	00028513          	mv	a0,t0
    24a0:	0b1010ef          	jal	3d50 <__mulsi3>
    24a4:	0103d613          	srl	a2,t2,0x10
    24a8:	008e8eb3          	add	t4,t4,s0
    24ac:	01d60633          	add	a2,a2,t4
    24b0:	00050793          	mv	a5,a0
    24b4:	00867663          	bgeu	a2,s0,24c0 <__muldf3+0x1c4>
    24b8:	000106b7          	lui	a3,0x10
    24bc:	00d507b3          	add	a5,a0,a3
    24c0:	00010a37          	lui	s4,0x10
    24c4:	fffa0e93          	add	t4,s4,-1 # ffff <__heap_start+0xafff>
    24c8:	01065293          	srl	t0,a2,0x10
    24cc:	00f282b3          	add	t0,t0,a5
    24d0:	01d677b3          	and	a5,a2,t4
    24d4:	01d3f3b3          	and	t2,t2,t4
    24d8:	01079793          	sll	a5,a5,0x10
    24dc:	007787b3          	add	a5,a5,t2
    24e0:	01d4feb3          	and	t4,s1,t4
    24e4:	00f98433          	add	s0,s3,a5
    24e8:	000e8513          	mv	a0,t4
    24ec:	0104d993          	srl	s3,s1,0x10
    24f0:	000f8593          	mv	a1,t6
    24f4:	05d010ef          	jal	3d50 <__mulsi3>
    24f8:	00050493          	mv	s1,a0
    24fc:	000f0593          	mv	a1,t5
    2500:	000e8513          	mv	a0,t4
    2504:	04d010ef          	jal	3d50 <__mulsi3>
    2508:	00050393          	mv	t2,a0
    250c:	000f8593          	mv	a1,t6
    2510:	00098513          	mv	a0,s3
    2514:	03d010ef          	jal	3d50 <__mulsi3>
    2518:	00050f93          	mv	t6,a0
    251c:	000f0593          	mv	a1,t5
    2520:	00098513          	mv	a0,s3
    2524:	02d010ef          	jal	3d50 <__mulsi3>
    2528:	0104d613          	srl	a2,s1,0x10
    252c:	01f383b3          	add	t2,t2,t6
    2530:	00760633          	add	a2,a2,t2
    2534:	00050693          	mv	a3,a0
    2538:	01f67463          	bgeu	a2,t6,2540 <__muldf3+0x244>
    253c:	014506b3          	add	a3,a0,s4
    2540:	00010a37          	lui	s4,0x10
    2544:	fffa0393          	add	t2,s4,-1 # ffff <__heap_start+0xafff>
    2548:	01065f93          	srl	t6,a2,0x10
    254c:	00767633          	and	a2,a2,t2
    2550:	01061613          	sll	a2,a2,0x10
    2554:	0074f4b3          	and	s1,s1,t2
    2558:	00df8fb3          	add	t6,t6,a3
    255c:	00960f33          	add	t5,a2,s1
    2560:	000e8513          	mv	a0,t4
    2564:	00070593          	mv	a1,a4
    2568:	7e8010ef          	jal	3d50 <__mulsi3>
    256c:	00050493          	mv	s1,a0
    2570:	00090593          	mv	a1,s2
    2574:	000e8513          	mv	a0,t4
    2578:	7d8010ef          	jal	3d50 <__mulsi3>
    257c:	00050b13          	mv	s6,a0
    2580:	00070593          	mv	a1,a4
    2584:	00098513          	mv	a0,s3
    2588:	7c8010ef          	jal	3d50 <__mulsi3>
    258c:	00050713          	mv	a4,a0
    2590:	00090593          	mv	a1,s2
    2594:	00098513          	mv	a0,s3
    2598:	7b8010ef          	jal	3d50 <__mulsi3>
    259c:	0104d593          	srl	a1,s1,0x10
    25a0:	00eb0b33          	add	s6,s6,a4
    25a4:	016585b3          	add	a1,a1,s6
    25a8:	00050e93          	mv	t4,a0
    25ac:	00e5f463          	bgeu	a1,a4,25b4 <__muldf3+0x2b8>
    25b0:	01450eb3          	add	t4,a0,s4
    25b4:	0075f733          	and	a4,a1,t2
    25b8:	01071713          	sll	a4,a4,0x10
    25bc:	0074f4b3          	and	s1,s1,t2
    25c0:	008e06b3          	add	a3,t3,s0
    25c4:	00970733          	add	a4,a4,s1
    25c8:	005702b3          	add	t0,a4,t0
    25cc:	00f6b7b3          	sltu	a5,a3,a5
    25d0:	00f287b3          	add	a5,t0,a5
    25d4:	00e2b633          	sltu	a2,t0,a4
    25d8:	0057b2b3          	sltu	t0,a5,t0
    25dc:	0105d593          	srl	a1,a1,0x10
    25e0:	00566633          	or	a2,a2,t0
    25e4:	00b60633          	add	a2,a2,a1
    25e8:	01e685b3          	add	a1,a3,t5
    25ec:	01f78fb3          	add	t6,a5,t6
    25f0:	00d5b6b3          	sltu	a3,a1,a3
    25f4:	00df86b3          	add	a3,t6,a3
    25f8:	00ffb733          	sltu	a4,t6,a5
    25fc:	01f6bfb3          	sltu	t6,a3,t6
    2600:	00959793          	sll	a5,a1,0x9
    2604:	01f76733          	or	a4,a4,t6
    2608:	00c70733          	add	a4,a4,a2
    260c:	0067e7b3          	or	a5,a5,t1
    2610:	01d70733          	add	a4,a4,t4
    2614:	00f037b3          	snez	a5,a5
    2618:	0175d593          	srl	a1,a1,0x17
    261c:	00971713          	sll	a4,a4,0x9
    2620:	0176d413          	srl	s0,a3,0x17
    2624:	00b7e7b3          	or	a5,a5,a1
    2628:	00969693          	sll	a3,a3,0x9
    262c:	00d7e7b3          	or	a5,a5,a3
    2630:	00771693          	sll	a3,a4,0x7
    2634:	00876433          	or	s0,a4,s0
    2638:	0206d063          	bgez	a3,2658 <__muldf3+0x35c>
    263c:	0017d713          	srl	a4,a5,0x1
    2640:	0017f793          	and	a5,a5,1
    2644:	00f76733          	or	a4,a4,a5
    2648:	01f41793          	sll	a5,s0,0x1f
    264c:	00f767b3          	or	a5,a4,a5
    2650:	00145413          	srl	s0,s0,0x1
    2654:	00088a93          	mv	s5,a7
    2658:	000a8893          	mv	a7,s5
    265c:	18c0006f          	j	27e8 <__muldf3+0x4ec>
    2660:	00a4ea33          	or	s4,s1,a0
    2664:	080a0063          	beqz	s4,26e4 <__muldf3+0x3e8>
    2668:	04048063          	beqz	s1,26a8 <__muldf3+0x3ac>
    266c:	00048513          	mv	a0,s1
    2670:	7b8010ef          	jal	3e28 <__clzsi2>
    2674:	ff550713          	add	a4,a0,-11
    2678:	01d00793          	li	a5,29
    267c:	ff850693          	add	a3,a0,-8
    2680:	40e787b3          	sub	a5,a5,a4
    2684:	00d494b3          	sll	s1,s1,a3
    2688:	00f457b3          	srl	a5,s0,a5
    268c:	0097e7b3          	or	a5,a5,s1
    2690:	00d414b3          	sll	s1,s0,a3
    2694:	c0d00a93          	li	s5,-1011
    2698:	00048a13          	mv	s4,s1
    269c:	40aa8ab3          	sub	s5,s5,a0
    26a0:	00078493          	mv	s1,a5
    26a4:	cc9ff06f          	j	236c <__muldf3+0x70>
    26a8:	780010ef          	jal	3e28 <__clzsi2>
    26ac:	00050793          	mv	a5,a0
    26b0:	01578713          	add	a4,a5,21
    26b4:	01c00693          	li	a3,28
    26b8:	02050513          	add	a0,a0,32
    26bc:	fae6dee3          	bge	a3,a4,2678 <__muldf3+0x37c>
    26c0:	ff878793          	add	a5,a5,-8
    26c4:	00f417b3          	sll	a5,s0,a5
    26c8:	fcdff06f          	j	2694 <__muldf3+0x398>
    26cc:	00a4ea33          	or	s4,s1,a0
    26d0:	020a1263          	bnez	s4,26f4 <__muldf3+0x3f8>
    26d4:	00000493          	li	s1,0
    26d8:	7ff00a93          	li	s5,2047
    26dc:	00200b93          	li	s7,2
    26e0:	c91ff06f          	j	2370 <__muldf3+0x74>
    26e4:	00000493          	li	s1,0
    26e8:	00000a93          	li	s5,0
    26ec:	00100b93          	li	s7,1
    26f0:	c81ff06f          	j	2370 <__muldf3+0x74>
    26f4:	00050a13          	mv	s4,a0
    26f8:	7ff00a93          	li	s5,2047
    26fc:	00300b93          	li	s7,3
    2700:	c71ff06f          	j	2370 <__muldf3+0x74>
    2704:	016467b3          	or	a5,s0,s6
    2708:	08078263          	beqz	a5,278c <__muldf3+0x490>
    270c:	04040063          	beqz	s0,274c <__muldf3+0x450>
    2710:	00040513          	mv	a0,s0
    2714:	714010ef          	jal	3e28 <__clzsi2>
    2718:	ff550693          	add	a3,a0,-11
    271c:	01d00713          	li	a4,29
    2720:	ff850793          	add	a5,a0,-8
    2724:	40d70733          	sub	a4,a4,a3
    2728:	00f41433          	sll	s0,s0,a5
    272c:	00eb5733          	srl	a4,s6,a4
    2730:	00876733          	or	a4,a4,s0
    2734:	00fb1433          	sll	s0,s6,a5
    2738:	c0d00693          	li	a3,-1011
    273c:	00040793          	mv	a5,s0
    2740:	40a686b3          	sub	a3,a3,a0
    2744:	00070413          	mv	s0,a4
    2748:	c65ff06f          	j	23ac <__muldf3+0xb0>
    274c:	000b0513          	mv	a0,s6
    2750:	6d8010ef          	jal	3e28 <__clzsi2>
    2754:	00050793          	mv	a5,a0
    2758:	01578693          	add	a3,a5,21
    275c:	01c00713          	li	a4,28
    2760:	02050513          	add	a0,a0,32
    2764:	fad75ce3          	bge	a4,a3,271c <__muldf3+0x420>
    2768:	ff878793          	add	a5,a5,-8
    276c:	00fb1733          	sll	a4,s6,a5
    2770:	fc9ff06f          	j	2738 <__muldf3+0x43c>
    2774:	016467b3          	or	a5,s0,s6
    2778:	02079263          	bnez	a5,279c <__muldf3+0x4a0>
    277c:	00000413          	li	s0,0
    2780:	7ff00693          	li	a3,2047
    2784:	00200713          	li	a4,2
    2788:	c29ff06f          	j	23b0 <__muldf3+0xb4>
    278c:	00000413          	li	s0,0
    2790:	00000693          	li	a3,0
    2794:	00100713          	li	a4,1
    2798:	c19ff06f          	j	23b0 <__muldf3+0xb4>
    279c:	000b0793          	mv	a5,s6
    27a0:	7ff00693          	li	a3,2047
    27a4:	00300713          	li	a4,3
    27a8:	c09ff06f          	j	23b0 <__muldf3+0xb4>
    27ac:	00100613          	li	a2,1
    27b0:	00d61633          	sll	a2,a2,a3
    27b4:	53067693          	and	a3,a2,1328
    27b8:	0e069663          	bnez	a3,28a4 <__muldf3+0x5a8>
    27bc:	24067593          	and	a1,a2,576
    27c0:	1a059a63          	bnez	a1,2974 <__muldf3+0x678>
    27c4:	08867613          	and	a2,a2,136
    27c8:	c0060ce3          	beqz	a2,23e0 <__muldf3+0xe4>
    27cc:	00090813          	mv	a6,s2
    27d0:	00200693          	li	a3,2
    27d4:	18d70863          	beq	a4,a3,2964 <__muldf3+0x668>
    27d8:	00300693          	li	a3,3
    27dc:	1ad70463          	beq	a4,a3,2984 <__muldf3+0x688>
    27e0:	00100693          	li	a3,1
    27e4:	1ad70663          	beq	a4,a3,2990 <__muldf3+0x694>
    27e8:	3ff88613          	add	a2,a7,1023
    27ec:	0cc05463          	blez	a2,28b4 <__muldf3+0x5b8>
    27f0:	0077f713          	and	a4,a5,7
    27f4:	02070063          	beqz	a4,2814 <__muldf3+0x518>
    27f8:	00f7f713          	and	a4,a5,15
    27fc:	00400693          	li	a3,4
    2800:	00d70a63          	beq	a4,a3,2814 <__muldf3+0x518>
    2804:	00478713          	add	a4,a5,4
    2808:	00f736b3          	sltu	a3,a4,a5
    280c:	00d40433          	add	s0,s0,a3
    2810:	00070793          	mv	a5,a4
    2814:	00741713          	sll	a4,s0,0x7
    2818:	00075a63          	bgez	a4,282c <__muldf3+0x530>
    281c:	ff000737          	lui	a4,0xff000
    2820:	fff70713          	add	a4,a4,-1 # feffffff <__heap_start+0xfeffafff>
    2824:	00e47433          	and	s0,s0,a4
    2828:	40088613          	add	a2,a7,1024
    282c:	7fe00713          	li	a4,2046
    2830:	12c74a63          	blt	a4,a2,2964 <__muldf3+0x668>
    2834:	0037d793          	srl	a5,a5,0x3
    2838:	01d41693          	sll	a3,s0,0x1d
    283c:	00f6e6b3          	or	a3,a3,a5
    2840:	00345713          	srl	a4,s0,0x3
    2844:	00c71713          	sll	a4,a4,0xc
    2848:	02c12083          	lw	ra,44(sp)
    284c:	02812403          	lw	s0,40(sp)
    2850:	01461613          	sll	a2,a2,0x14
    2854:	00c75713          	srl	a4,a4,0xc
    2858:	00e66633          	or	a2,a2,a4
    285c:	01f81813          	sll	a6,a6,0x1f
    2860:	010667b3          	or	a5,a2,a6
    2864:	02412483          	lw	s1,36(sp)
    2868:	02012903          	lw	s2,32(sp)
    286c:	01c12983          	lw	s3,28(sp)
    2870:	01812a03          	lw	s4,24(sp)
    2874:	01412a83          	lw	s5,20(sp)
    2878:	01012b03          	lw	s6,16(sp)
    287c:	00c12b83          	lw	s7,12(sp)
    2880:	00068513          	mv	a0,a3
    2884:	00078593          	mv	a1,a5
    2888:	03010113          	add	sp,sp,48
    288c:	00008067          	ret
    2890:	00f00613          	li	a2,15
    2894:	0ec68863          	beq	a3,a2,2984 <__muldf3+0x688>
    2898:	00b00613          	li	a2,11
    289c:	00098813          	mv	a6,s3
    28a0:	f2c686e3          	beq	a3,a2,27cc <__muldf3+0x4d0>
    28a4:	00048413          	mv	s0,s1
    28a8:	000a0793          	mv	a5,s4
    28ac:	000b8713          	mv	a4,s7
    28b0:	f21ff06f          	j	27d0 <__muldf3+0x4d4>
    28b4:	00100713          	li	a4,1
    28b8:	40c70733          	sub	a4,a4,a2
    28bc:	03800693          	li	a3,56
    28c0:	0ce6c863          	blt	a3,a4,2990 <__muldf3+0x694>
    28c4:	01f00693          	li	a3,31
    28c8:	06e6c463          	blt	a3,a4,2930 <__muldf3+0x634>
    28cc:	41e88893          	add	a7,a7,1054
    28d0:	00e7d633          	srl	a2,a5,a4
    28d4:	011416b3          	sll	a3,s0,a7
    28d8:	011798b3          	sll	a7,a5,a7
    28dc:	00c6e6b3          	or	a3,a3,a2
    28e0:	011038b3          	snez	a7,a7
    28e4:	0116e7b3          	or	a5,a3,a7
    28e8:	00e45733          	srl	a4,s0,a4
    28ec:	0077f693          	and	a3,a5,7
    28f0:	02068063          	beqz	a3,2910 <__muldf3+0x614>
    28f4:	00f7f693          	and	a3,a5,15
    28f8:	00400613          	li	a2,4
    28fc:	00c68a63          	beq	a3,a2,2910 <__muldf3+0x614>
    2900:	00478693          	add	a3,a5,4
    2904:	00f6b633          	sltu	a2,a3,a5
    2908:	00c70733          	add	a4,a4,a2
    290c:	00068793          	mv	a5,a3
    2910:	00871693          	sll	a3,a4,0x8
    2914:	0806c463          	bltz	a3,299c <__muldf3+0x6a0>
    2918:	01d71693          	sll	a3,a4,0x1d
    291c:	0037d793          	srl	a5,a5,0x3
    2920:	00f6e6b3          	or	a3,a3,a5
    2924:	00375713          	srl	a4,a4,0x3
    2928:	00000613          	li	a2,0
    292c:	f19ff06f          	j	2844 <__muldf3+0x548>
    2930:	fe100693          	li	a3,-31
    2934:	40c686b3          	sub	a3,a3,a2
    2938:	02000593          	li	a1,32
    293c:	00d456b3          	srl	a3,s0,a3
    2940:	00000613          	li	a2,0
    2944:	00b70663          	beq	a4,a1,2950 <__muldf3+0x654>
    2948:	43e88613          	add	a2,a7,1086
    294c:	00c41633          	sll	a2,s0,a2
    2950:	00f66633          	or	a2,a2,a5
    2954:	00c03633          	snez	a2,a2
    2958:	00c6e7b3          	or	a5,a3,a2
    295c:	00000713          	li	a4,0
    2960:	f8dff06f          	j	28ec <__muldf3+0x5f0>
    2964:	00000713          	li	a4,0
    2968:	00000693          	li	a3,0
    296c:	7ff00613          	li	a2,2047
    2970:	ed5ff06f          	j	2844 <__muldf3+0x548>
    2974:	00080737          	lui	a4,0x80
    2978:	7ff00613          	li	a2,2047
    297c:	00000813          	li	a6,0
    2980:	ec5ff06f          	j	2844 <__muldf3+0x548>
    2984:	00080737          	lui	a4,0x80
    2988:	00000693          	li	a3,0
    298c:	fedff06f          	j	2978 <__muldf3+0x67c>
    2990:	00000713          	li	a4,0
    2994:	00000693          	li	a3,0
    2998:	f91ff06f          	j	2928 <__muldf3+0x62c>
    299c:	00000713          	li	a4,0
    29a0:	00000693          	li	a3,0
    29a4:	00100613          	li	a2,1
    29a8:	e9dff06f          	j	2844 <__muldf3+0x548>

000029ac <__addsf3>:
    29ac:	008006b7          	lui	a3,0x800
    29b0:	fff68693          	add	a3,a3,-1 # 7fffff <__heap_start+0x7fafff>
    29b4:	ff010113          	add	sp,sp,-16
    29b8:	00a6f633          	and	a2,a3,a0
    29bc:	01755713          	srl	a4,a0,0x17
    29c0:	00812423          	sw	s0,8(sp)
    29c4:	01f55413          	srl	s0,a0,0x1f
    29c8:	00361513          	sll	a0,a2,0x3
    29cc:	0175d613          	srl	a2,a1,0x17
    29d0:	00b6f6b3          	and	a3,a3,a1
    29d4:	01212023          	sw	s2,0(sp)
    29d8:	0ff67613          	zext.b	a2,a2
    29dc:	0ff77913          	zext.b	s2,a4
    29e0:	00112623          	sw	ra,12(sp)
    29e4:	00912223          	sw	s1,4(sp)
    29e8:	01f5d593          	srl	a1,a1,0x1f
    29ec:	00369793          	sll	a5,a3,0x3
    29f0:	40c906b3          	sub	a3,s2,a2
    29f4:	18b41063          	bne	s0,a1,2b74 <__addsf3+0x1c8>
    29f8:	08d05c63          	blez	a3,2a90 <__addsf3+0xe4>
    29fc:	02061663          	bnez	a2,2a28 <__addsf3+0x7c>
    2a00:	02078063          	beqz	a5,2a20 <__addsf3+0x74>
    2a04:	fff90693          	add	a3,s2,-1
    2a08:	00069863          	bnez	a3,2a18 <__addsf3+0x6c>
    2a0c:	00a787b3          	add	a5,a5,a0
    2a10:	00100913          	li	s2,1
    2a14:	04c0006f          	j	2a60 <__addsf3+0xb4>
    2a18:	0ff00713          	li	a4,255
    2a1c:	00e91e63          	bne	s2,a4,2a38 <__addsf3+0x8c>
    2a20:	00050793          	mv	a5,a0
    2a24:	10c0006f          	j	2b30 <__addsf3+0x184>
    2a28:	0ff00713          	li	a4,255
    2a2c:	fee90ae3          	beq	s2,a4,2a20 <__addsf3+0x74>
    2a30:	04000737          	lui	a4,0x4000
    2a34:	00e7e7b3          	or	a5,a5,a4
    2a38:	01b00613          	li	a2,27
    2a3c:	00100713          	li	a4,1
    2a40:	00d64e63          	blt	a2,a3,2a5c <__addsf3+0xb0>
    2a44:	02000613          	li	a2,32
    2a48:	00d7d733          	srl	a4,a5,a3
    2a4c:	40d606b3          	sub	a3,a2,a3
    2a50:	00d796b3          	sll	a3,a5,a3
    2a54:	00d036b3          	snez	a3,a3
    2a58:	00d76733          	or	a4,a4,a3
    2a5c:	00a707b3          	add	a5,a4,a0
    2a60:	00579713          	sll	a4,a5,0x5
    2a64:	0c075663          	bgez	a4,2b30 <__addsf3+0x184>
    2a68:	00190913          	add	s2,s2,1
    2a6c:	0ff00713          	li	a4,255
    2a70:	2ce90a63          	beq	s2,a4,2d44 <__addsf3+0x398>
    2a74:	7e000737          	lui	a4,0x7e000
    2a78:	0017f693          	and	a3,a5,1
    2a7c:	fff70713          	add	a4,a4,-1 # 7dffffff <__heap_start+0x7dffafff>
    2a80:	0017d793          	srl	a5,a5,0x1
    2a84:	00e7f7b3          	and	a5,a5,a4
    2a88:	00d7e7b3          	or	a5,a5,a3
    2a8c:	0a40006f          	j	2b30 <__addsf3+0x184>
    2a90:	06068663          	beqz	a3,2afc <__addsf3+0x150>
    2a94:	41260733          	sub	a4,a2,s2
    2a98:	02091063          	bnez	s2,2ab8 <__addsf3+0x10c>
    2a9c:	0c050863          	beqz	a0,2b6c <__addsf3+0x1c0>
    2aa0:	fff70693          	add	a3,a4,-1
    2aa4:	f60684e3          	beqz	a3,2a0c <__addsf3+0x60>
    2aa8:	0ff00593          	li	a1,255
    2aac:	02b71063          	bne	a4,a1,2acc <__addsf3+0x120>
    2ab0:	0ff00913          	li	s2,255
    2ab4:	07c0006f          	j	2b30 <__addsf3+0x184>
    2ab8:	0ff00693          	li	a3,255
    2abc:	fed60ae3          	beq	a2,a3,2ab0 <__addsf3+0x104>
    2ac0:	040006b7          	lui	a3,0x4000
    2ac4:	00d56533          	or	a0,a0,a3
    2ac8:	00070693          	mv	a3,a4
    2acc:	01b00593          	li	a1,27
    2ad0:	00100713          	li	a4,1
    2ad4:	00d5ce63          	blt	a1,a3,2af0 <__addsf3+0x144>
    2ad8:	02000713          	li	a4,32
    2adc:	40d70733          	sub	a4,a4,a3
    2ae0:	00e51733          	sll	a4,a0,a4
    2ae4:	00d555b3          	srl	a1,a0,a3
    2ae8:	00e03733          	snez	a4,a4
    2aec:	00e5e733          	or	a4,a1,a4
    2af0:	00e787b3          	add	a5,a5,a4
    2af4:	00060913          	mv	s2,a2
    2af8:	f69ff06f          	j	2a60 <__addsf3+0xb4>
    2afc:	00190713          	add	a4,s2,1
    2b00:	0fe77693          	and	a3,a4,254
    2b04:	04069c63          	bnez	a3,2b5c <__addsf3+0x1b0>
    2b08:	04091263          	bnez	s2,2b4c <__addsf3+0x1a0>
    2b0c:	02050263          	beqz	a0,2b30 <__addsf3+0x184>
    2b10:	f00788e3          	beqz	a5,2a20 <__addsf3+0x74>
    2b14:	00a787b3          	add	a5,a5,a0
    2b18:	00579713          	sll	a4,a5,0x5
    2b1c:	00075a63          	bgez	a4,2b30 <__addsf3+0x184>
    2b20:	fc000737          	lui	a4,0xfc000
    2b24:	fff70713          	add	a4,a4,-1 # fbffffff <__heap_start+0xfbffafff>
    2b28:	00e7f7b3          	and	a5,a5,a4
    2b2c:	00100913          	li	s2,1
    2b30:	0077f713          	and	a4,a5,7
    2b34:	20070a63          	beqz	a4,2d48 <__addsf3+0x39c>
    2b38:	00f7f713          	and	a4,a5,15
    2b3c:	00400693          	li	a3,4
    2b40:	20d70463          	beq	a4,a3,2d48 <__addsf3+0x39c>
    2b44:	00478793          	add	a5,a5,4
    2b48:	2000006f          	j	2d48 <__addsf3+0x39c>
    2b4c:	f60502e3          	beqz	a0,2ab0 <__addsf3+0x104>
    2b50:	16079663          	bnez	a5,2cbc <__addsf3+0x310>
    2b54:	00050793          	mv	a5,a0
    2b58:	f59ff06f          	j	2ab0 <__addsf3+0x104>
    2b5c:	0ff00693          	li	a3,255
    2b60:	1ed70063          	beq	a4,a3,2d40 <__addsf3+0x394>
    2b64:	00f507b3          	add	a5,a0,a5
    2b68:	0017d793          	srl	a5,a5,0x1
    2b6c:	00070913          	mv	s2,a4
    2b70:	fc1ff06f          	j	2b30 <__addsf3+0x184>
    2b74:	06d05e63          	blez	a3,2bf0 <__addsf3+0x244>
    2b78:	06061263          	bnez	a2,2bdc <__addsf3+0x230>
    2b7c:	ea0782e3          	beqz	a5,2a20 <__addsf3+0x74>
    2b80:	fff90693          	add	a3,s2,-1
    2b84:	00069863          	bnez	a3,2b94 <__addsf3+0x1e8>
    2b88:	40f507b3          	sub	a5,a0,a5
    2b8c:	00100913          	li	s2,1
    2b90:	0340006f          	j	2bc4 <__addsf3+0x218>
    2b94:	0ff00713          	li	a4,255
    2b98:	e8e904e3          	beq	s2,a4,2a20 <__addsf3+0x74>
    2b9c:	01b00613          	li	a2,27
    2ba0:	00100713          	li	a4,1
    2ba4:	00d64e63          	blt	a2,a3,2bc0 <__addsf3+0x214>
    2ba8:	02000613          	li	a2,32
    2bac:	00d7d733          	srl	a4,a5,a3
    2bb0:	40d606b3          	sub	a3,a2,a3
    2bb4:	00d796b3          	sll	a3,a5,a3
    2bb8:	00d036b3          	snez	a3,a3
    2bbc:	00d76733          	or	a4,a4,a3
    2bc0:	40e507b3          	sub	a5,a0,a4
    2bc4:	00579713          	sll	a4,a5,0x5
    2bc8:	f60754e3          	bgez	a4,2b30 <__addsf3+0x184>
    2bcc:	040004b7          	lui	s1,0x4000
    2bd0:	fff48493          	add	s1,s1,-1 # 3ffffff <__heap_start+0x3ffafff>
    2bd4:	0097f4b3          	and	s1,a5,s1
    2bd8:	1080006f          	j	2ce0 <__addsf3+0x334>
    2bdc:	0ff00713          	li	a4,255
    2be0:	e4e900e3          	beq	s2,a4,2a20 <__addsf3+0x74>
    2be4:	04000737          	lui	a4,0x4000
    2be8:	00e7e7b3          	or	a5,a5,a4
    2bec:	fb1ff06f          	j	2b9c <__addsf3+0x1f0>
    2bf0:	06068e63          	beqz	a3,2c6c <__addsf3+0x2c0>
    2bf4:	41260733          	sub	a4,a2,s2
    2bf8:	02091663          	bnez	s2,2c24 <__addsf3+0x278>
    2bfc:	1a050e63          	beqz	a0,2db8 <__addsf3+0x40c>
    2c00:	fff70693          	add	a3,a4,-1 # 3ffffff <__heap_start+0x3ffafff>
    2c04:	00069863          	bnez	a3,2c14 <__addsf3+0x268>
    2c08:	40a787b3          	sub	a5,a5,a0
    2c0c:	00058413          	mv	s0,a1
    2c10:	f7dff06f          	j	2b8c <__addsf3+0x1e0>
    2c14:	0ff00813          	li	a6,255
    2c18:	03071063          	bne	a4,a6,2c38 <__addsf3+0x28c>
    2c1c:	0ff00913          	li	s2,255
    2c20:	19c0006f          	j	2dbc <__addsf3+0x410>
    2c24:	0ff00693          	li	a3,255
    2c28:	fed60ae3          	beq	a2,a3,2c1c <__addsf3+0x270>
    2c2c:	040006b7          	lui	a3,0x4000
    2c30:	00d56533          	or	a0,a0,a3
    2c34:	00070693          	mv	a3,a4
    2c38:	01b00813          	li	a6,27
    2c3c:	00100713          	li	a4,1
    2c40:	00d84e63          	blt	a6,a3,2c5c <__addsf3+0x2b0>
    2c44:	02000713          	li	a4,32
    2c48:	40d70733          	sub	a4,a4,a3
    2c4c:	00e51733          	sll	a4,a0,a4
    2c50:	00d55833          	srl	a6,a0,a3
    2c54:	00e03733          	snez	a4,a4
    2c58:	00e86733          	or	a4,a6,a4
    2c5c:	40e787b3          	sub	a5,a5,a4
    2c60:	00060913          	mv	s2,a2
    2c64:	00058413          	mv	s0,a1
    2c68:	f5dff06f          	j	2bc4 <__addsf3+0x218>
    2c6c:	00190713          	add	a4,s2,1
    2c70:	0fe77713          	and	a4,a4,254
    2c74:	04071c63          	bnez	a4,2ccc <__addsf3+0x320>
    2c78:	02091c63          	bnez	s2,2cb0 <__addsf3+0x304>
    2c7c:	00051863          	bnez	a0,2c8c <__addsf3+0x2e0>
    2c80:	12079e63          	bnez	a5,2dbc <__addsf3+0x410>
    2c84:	00000413          	li	s0,0
    2c88:	0c00006f          	j	2d48 <__addsf3+0x39c>
    2c8c:	d8078ae3          	beqz	a5,2a20 <__addsf3+0x74>
    2c90:	40f50733          	sub	a4,a0,a5
    2c94:	00571693          	sll	a3,a4,0x5
    2c98:	40a787b3          	sub	a5,a5,a0
    2c9c:	1206c063          	bltz	a3,2dbc <__addsf3+0x410>
    2ca0:	00070793          	mv	a5,a4
    2ca4:	e80716e3          	bnez	a4,2b30 <__addsf3+0x184>
    2ca8:	00000793          	li	a5,0
    2cac:	fd9ff06f          	j	2c84 <__addsf3+0x2d8>
    2cb0:	ea0510e3          	bnez	a0,2b50 <__addsf3+0x1a4>
    2cb4:	00058413          	mv	s0,a1
    2cb8:	de079ce3          	bnez	a5,2ab0 <__addsf3+0x104>
    2cbc:	00000413          	li	s0,0
    2cc0:	020007b7          	lui	a5,0x2000
    2cc4:	0ff00913          	li	s2,255
    2cc8:	0800006f          	j	2d48 <__addsf3+0x39c>
    2ccc:	40f504b3          	sub	s1,a0,a5
    2cd0:	00549713          	sll	a4,s1,0x5
    2cd4:	04075463          	bgez	a4,2d1c <__addsf3+0x370>
    2cd8:	40a784b3          	sub	s1,a5,a0
    2cdc:	00058413          	mv	s0,a1
    2ce0:	00048513          	mv	a0,s1
    2ce4:	144010ef          	jal	3e28 <__clzsi2>
    2ce8:	ffb50513          	add	a0,a0,-5
    2cec:	00a494b3          	sll	s1,s1,a0
    2cf0:	03254e63          	blt	a0,s2,2d2c <__addsf3+0x380>
    2cf4:	41250533          	sub	a0,a0,s2
    2cf8:	00150513          	add	a0,a0,1
    2cfc:	02000713          	li	a4,32
    2d00:	40a70733          	sub	a4,a4,a0
    2d04:	00a4d7b3          	srl	a5,s1,a0
    2d08:	00e494b3          	sll	s1,s1,a4
    2d0c:	009034b3          	snez	s1,s1
    2d10:	0097e7b3          	or	a5,a5,s1
    2d14:	00000913          	li	s2,0
    2d18:	e19ff06f          	j	2b30 <__addsf3+0x184>
    2d1c:	fc0492e3          	bnez	s1,2ce0 <__addsf3+0x334>
    2d20:	00000793          	li	a5,0
    2d24:	00000913          	li	s2,0
    2d28:	f5dff06f          	j	2c84 <__addsf3+0x2d8>
    2d2c:	fc0007b7          	lui	a5,0xfc000
    2d30:	fff78793          	add	a5,a5,-1 # fbffffff <__heap_start+0xfbffafff>
    2d34:	40a90933          	sub	s2,s2,a0
    2d38:	00f4f7b3          	and	a5,s1,a5
    2d3c:	df5ff06f          	j	2b30 <__addsf3+0x184>
    2d40:	0ff00913          	li	s2,255
    2d44:	00000793          	li	a5,0
    2d48:	00579713          	sll	a4,a5,0x5
    2d4c:	00075e63          	bgez	a4,2d68 <__addsf3+0x3bc>
    2d50:	00190913          	add	s2,s2,1
    2d54:	0ff00713          	li	a4,255
    2d58:	06e90663          	beq	s2,a4,2dc4 <__addsf3+0x418>
    2d5c:	fc000737          	lui	a4,0xfc000
    2d60:	fff70713          	add	a4,a4,-1 # fbffffff <__heap_start+0xfbffafff>
    2d64:	00e7f7b3          	and	a5,a5,a4
    2d68:	0ff00713          	li	a4,255
    2d6c:	0037d793          	srl	a5,a5,0x3
    2d70:	00e91863          	bne	s2,a4,2d80 <__addsf3+0x3d4>
    2d74:	00078663          	beqz	a5,2d80 <__addsf3+0x3d4>
    2d78:	004007b7          	lui	a5,0x400
    2d7c:	00000413          	li	s0,0
    2d80:	00c12083          	lw	ra,12(sp)
    2d84:	01791713          	sll	a4,s2,0x17
    2d88:	01f41513          	sll	a0,s0,0x1f
    2d8c:	7f8006b7          	lui	a3,0x7f800
    2d90:	00812403          	lw	s0,8(sp)
    2d94:	00979793          	sll	a5,a5,0x9
    2d98:	00d77733          	and	a4,a4,a3
    2d9c:	0097d793          	srl	a5,a5,0x9
    2da0:	00f767b3          	or	a5,a4,a5
    2da4:	00412483          	lw	s1,4(sp)
    2da8:	00012903          	lw	s2,0(sp)
    2dac:	00a7e533          	or	a0,a5,a0
    2db0:	01010113          	add	sp,sp,16
    2db4:	00008067          	ret
    2db8:	00070913          	mv	s2,a4
    2dbc:	00058413          	mv	s0,a1
    2dc0:	d71ff06f          	j	2b30 <__addsf3+0x184>
    2dc4:	00000793          	li	a5,0
    2dc8:	fa1ff06f          	j	2d68 <__addsf3+0x3bc>

00002dcc <__divsf3>:
    2dcc:	fd010113          	add	sp,sp,-48
    2dd0:	02912223          	sw	s1,36(sp)
    2dd4:	01755493          	srl	s1,a0,0x17
    2dd8:	01312e23          	sw	s3,28(sp)
    2ddc:	01512a23          	sw	s5,20(sp)
    2de0:	01612823          	sw	s6,16(sp)
    2de4:	00951a93          	sll	s5,a0,0x9
    2de8:	02112623          	sw	ra,44(sp)
    2dec:	02812423          	sw	s0,40(sp)
    2df0:	03212023          	sw	s2,32(sp)
    2df4:	01412c23          	sw	s4,24(sp)
    2df8:	01712623          	sw	s7,12(sp)
    2dfc:	01812423          	sw	s8,8(sp)
    2e00:	0ff4f493          	zext.b	s1,s1
    2e04:	00058b13          	mv	s6,a1
    2e08:	009ada93          	srl	s5,s5,0x9
    2e0c:	01f55993          	srl	s3,a0,0x1f
    2e10:	08048463          	beqz	s1,2e98 <__divsf3+0xcc>
    2e14:	0ff00793          	li	a5,255
    2e18:	0af48063          	beq	s1,a5,2eb8 <__divsf3+0xec>
    2e1c:	003a9a93          	sll	s5,s5,0x3
    2e20:	040007b7          	lui	a5,0x4000
    2e24:	00faeab3          	or	s5,s5,a5
    2e28:	f8148493          	add	s1,s1,-127
    2e2c:	00000b93          	li	s7,0
    2e30:	017b5793          	srl	a5,s6,0x17
    2e34:	009b1413          	sll	s0,s6,0x9
    2e38:	0ff7f793          	zext.b	a5,a5
    2e3c:	00945413          	srl	s0,s0,0x9
    2e40:	01fb5b13          	srl	s6,s6,0x1f
    2e44:	08078a63          	beqz	a5,2ed8 <__divsf3+0x10c>
    2e48:	0ff00713          	li	a4,255
    2e4c:	0ae78663          	beq	a5,a4,2ef8 <__divsf3+0x12c>
    2e50:	00341413          	sll	s0,s0,0x3
    2e54:	04000737          	lui	a4,0x4000
    2e58:	00e46433          	or	s0,s0,a4
    2e5c:	f8178793          	add	a5,a5,-127 # 3ffff81 <__heap_start+0x3ffaf81>
    2e60:	00000713          	li	a4,0
    2e64:	40f48a33          	sub	s4,s1,a5
    2e68:	002b9793          	sll	a5,s7,0x2
    2e6c:	00e7e7b3          	or	a5,a5,a4
    2e70:	fff78793          	add	a5,a5,-1
    2e74:	00e00693          	li	a3,14
    2e78:	0169c933          	xor	s2,s3,s6
    2e7c:	08f6ee63          	bltu	a3,a5,2f18 <__divsf3+0x14c>
    2e80:	000046b7          	lui	a3,0x4
    2e84:	00279793          	sll	a5,a5,0x2
    2e88:	4f868693          	add	a3,a3,1272 # 44f8 <main+0x684>
    2e8c:	00d787b3          	add	a5,a5,a3
    2e90:	0007a783          	lw	a5,0(a5)
    2e94:	00078067          	jr	a5
    2e98:	020a8a63          	beqz	s5,2ecc <__divsf3+0x100>
    2e9c:	000a8513          	mv	a0,s5
    2ea0:	789000ef          	jal	3e28 <__clzsi2>
    2ea4:	ffb50793          	add	a5,a0,-5
    2ea8:	f8a00493          	li	s1,-118
    2eac:	00fa9ab3          	sll	s5,s5,a5
    2eb0:	40a484b3          	sub	s1,s1,a0
    2eb4:	f79ff06f          	j	2e2c <__divsf3+0x60>
    2eb8:	0ff00493          	li	s1,255
    2ebc:	00200b93          	li	s7,2
    2ec0:	f60a88e3          	beqz	s5,2e30 <__divsf3+0x64>
    2ec4:	00300b93          	li	s7,3
    2ec8:	f69ff06f          	j	2e30 <__divsf3+0x64>
    2ecc:	00000493          	li	s1,0
    2ed0:	00100b93          	li	s7,1
    2ed4:	f5dff06f          	j	2e30 <__divsf3+0x64>
    2ed8:	02040a63          	beqz	s0,2f0c <__divsf3+0x140>
    2edc:	00040513          	mv	a0,s0
    2ee0:	749000ef          	jal	3e28 <__clzsi2>
    2ee4:	ffb50793          	add	a5,a0,-5
    2ee8:	00f41433          	sll	s0,s0,a5
    2eec:	f8a00793          	li	a5,-118
    2ef0:	40a787b3          	sub	a5,a5,a0
    2ef4:	f6dff06f          	j	2e60 <__divsf3+0x94>
    2ef8:	0ff00793          	li	a5,255
    2efc:	00200713          	li	a4,2
    2f00:	f60402e3          	beqz	s0,2e64 <__divsf3+0x98>
    2f04:	00300713          	li	a4,3
    2f08:	f5dff06f          	j	2e64 <__divsf3+0x98>
    2f0c:	00000793          	li	a5,0
    2f10:	00100713          	li	a4,1
    2f14:	f51ff06f          	j	2e64 <__divsf3+0x98>
    2f18:	00541c13          	sll	s8,s0,0x5
    2f1c:	168af863          	bgeu	s5,s0,308c <__divsf3+0x2c0>
    2f20:	fffa0a13          	add	s4,s4,-1
    2f24:	00000413          	li	s0,0
    2f28:	010c5b13          	srl	s6,s8,0x10
    2f2c:	000109b7          	lui	s3,0x10
    2f30:	000b0593          	mv	a1,s6
    2f34:	fe098993          	add	s3,s3,-32 # ffe0 <__heap_start+0xafe0>
    2f38:	000a8513          	mv	a0,s5
    2f3c:	641000ef          	jal	3d7c <__hidden___udivsi3>
    2f40:	013c79b3          	and	s3,s8,s3
    2f44:	00050593          	mv	a1,a0
    2f48:	00050b93          	mv	s7,a0
    2f4c:	00098513          	mv	a0,s3
    2f50:	601000ef          	jal	3d50 <__mulsi3>
    2f54:	00050493          	mv	s1,a0
    2f58:	000b0593          	mv	a1,s6
    2f5c:	000a8513          	mv	a0,s5
    2f60:	665000ef          	jal	3dc4 <__umodsi3>
    2f64:	01045793          	srl	a5,s0,0x10
    2f68:	01051513          	sll	a0,a0,0x10
    2f6c:	00a7e7b3          	or	a5,a5,a0
    2f70:	000b8413          	mv	s0,s7
    2f74:	0097fe63          	bgeu	a5,s1,2f90 <__divsf3+0x1c4>
    2f78:	00fc07b3          	add	a5,s8,a5
    2f7c:	fffb8413          	add	s0,s7,-1
    2f80:	0187e863          	bltu	a5,s8,2f90 <__divsf3+0x1c4>
    2f84:	0097f663          	bgeu	a5,s1,2f90 <__divsf3+0x1c4>
    2f88:	ffeb8413          	add	s0,s7,-2
    2f8c:	018787b3          	add	a5,a5,s8
    2f90:	409784b3          	sub	s1,a5,s1
    2f94:	000b0593          	mv	a1,s6
    2f98:	00048513          	mv	a0,s1
    2f9c:	5e1000ef          	jal	3d7c <__hidden___udivsi3>
    2fa0:	00050593          	mv	a1,a0
    2fa4:	00050a93          	mv	s5,a0
    2fa8:	00098513          	mv	a0,s3
    2fac:	5a5000ef          	jal	3d50 <__mulsi3>
    2fb0:	00050993          	mv	s3,a0
    2fb4:	000b0593          	mv	a1,s6
    2fb8:	00048513          	mv	a0,s1
    2fbc:	609000ef          	jal	3dc4 <__umodsi3>
    2fc0:	01051793          	sll	a5,a0,0x10
    2fc4:	000a8713          	mv	a4,s5
    2fc8:	0337f263          	bgeu	a5,s3,2fec <__divsf3+0x220>
    2fcc:	018786b3          	add	a3,a5,s8
    2fd0:	00f6b633          	sltu	a2,a3,a5
    2fd4:	fffa8713          	add	a4,s5,-1
    2fd8:	00068793          	mv	a5,a3
    2fdc:	00061863          	bnez	a2,2fec <__divsf3+0x220>
    2fe0:	0136f663          	bgeu	a3,s3,2fec <__divsf3+0x220>
    2fe4:	ffea8713          	add	a4,s5,-2
    2fe8:	018687b3          	add	a5,a3,s8
    2fec:	01041413          	sll	s0,s0,0x10
    2ff0:	413787b3          	sub	a5,a5,s3
    2ff4:	00e46433          	or	s0,s0,a4
    2ff8:	00f037b3          	snez	a5,a5
    2ffc:	00f46433          	or	s0,s0,a5
    3000:	07fa0713          	add	a4,s4,127
    3004:	0ce05e63          	blez	a4,30e0 <__divsf3+0x314>
    3008:	00747793          	and	a5,s0,7
    300c:	00078a63          	beqz	a5,3020 <__divsf3+0x254>
    3010:	00f47793          	and	a5,s0,15
    3014:	00400693          	li	a3,4
    3018:	00d78463          	beq	a5,a3,3020 <__divsf3+0x254>
    301c:	00440413          	add	s0,s0,4 # 800004 <__heap_start+0x7fb004>
    3020:	00441793          	sll	a5,s0,0x4
    3024:	0007da63          	bgez	a5,3038 <__divsf3+0x26c>
    3028:	f80007b7          	lui	a5,0xf8000
    302c:	fff78793          	add	a5,a5,-1 # f7ffffff <__heap_start+0xf7ffafff>
    3030:	00f47433          	and	s0,s0,a5
    3034:	080a0713          	add	a4,s4,128
    3038:	0fe00793          	li	a5,254
    303c:	08e7c063          	blt	a5,a4,30bc <__divsf3+0x2f0>
    3040:	00345793          	srl	a5,s0,0x3
    3044:	02c12083          	lw	ra,44(sp)
    3048:	02812403          	lw	s0,40(sp)
    304c:	00979793          	sll	a5,a5,0x9
    3050:	01771713          	sll	a4,a4,0x17
    3054:	0097d793          	srl	a5,a5,0x9
    3058:	01f91513          	sll	a0,s2,0x1f
    305c:	00f76733          	or	a4,a4,a5
    3060:	02412483          	lw	s1,36(sp)
    3064:	02012903          	lw	s2,32(sp)
    3068:	01c12983          	lw	s3,28(sp)
    306c:	01812a03          	lw	s4,24(sp)
    3070:	01412a83          	lw	s5,20(sp)
    3074:	01012b03          	lw	s6,16(sp)
    3078:	00c12b83          	lw	s7,12(sp)
    307c:	00812c03          	lw	s8,8(sp)
    3080:	00a76533          	or	a0,a4,a0
    3084:	03010113          	add	sp,sp,48
    3088:	00008067          	ret
    308c:	01fa9413          	sll	s0,s5,0x1f
    3090:	001ada93          	srl	s5,s5,0x1
    3094:	e95ff06f          	j	2f28 <__divsf3+0x15c>
    3098:	00098913          	mv	s2,s3
    309c:	000a8413          	mv	s0,s5
    30a0:	000b8713          	mv	a4,s7
    30a4:	00300793          	li	a5,3
    30a8:	08f70663          	beq	a4,a5,3134 <__divsf3+0x368>
    30ac:	00100793          	li	a5,1
    30b0:	08f70a63          	beq	a4,a5,3144 <__divsf3+0x378>
    30b4:	00200793          	li	a5,2
    30b8:	f4f714e3          	bne	a4,a5,3000 <__divsf3+0x234>
    30bc:	00000793          	li	a5,0
    30c0:	0ff00713          	li	a4,255
    30c4:	f81ff06f          	j	3044 <__divsf3+0x278>
    30c8:	000b0913          	mv	s2,s6
    30cc:	fd9ff06f          	j	30a4 <__divsf3+0x2d8>
    30d0:	00400437          	lui	s0,0x400
    30d4:	00000913          	li	s2,0
    30d8:	00300713          	li	a4,3
    30dc:	fc9ff06f          	j	30a4 <__divsf3+0x2d8>
    30e0:	00100793          	li	a5,1
    30e4:	40e787b3          	sub	a5,a5,a4
    30e8:	01b00713          	li	a4,27
    30ec:	04f74c63          	blt	a4,a5,3144 <__divsf3+0x378>
    30f0:	09ea0493          	add	s1,s4,158
    30f4:	00f457b3          	srl	a5,s0,a5
    30f8:	00941433          	sll	s0,s0,s1
    30fc:	00803433          	snez	s0,s0
    3100:	0087e7b3          	or	a5,a5,s0
    3104:	0077f713          	and	a4,a5,7
    3108:	00070a63          	beqz	a4,311c <__divsf3+0x350>
    310c:	00f7f713          	and	a4,a5,15
    3110:	00400693          	li	a3,4
    3114:	00d70463          	beq	a4,a3,311c <__divsf3+0x350>
    3118:	00478793          	add	a5,a5,4
    311c:	00579713          	sll	a4,a5,0x5
    3120:	0037d793          	srl	a5,a5,0x3
    3124:	02075263          	bgez	a4,3148 <__divsf3+0x37c>
    3128:	00000793          	li	a5,0
    312c:	00100713          	li	a4,1
    3130:	f15ff06f          	j	3044 <__divsf3+0x278>
    3134:	004007b7          	lui	a5,0x400
    3138:	0ff00713          	li	a4,255
    313c:	00000913          	li	s2,0
    3140:	f05ff06f          	j	3044 <__divsf3+0x278>
    3144:	00000793          	li	a5,0
    3148:	00000713          	li	a4,0
    314c:	ef9ff06f          	j	3044 <__divsf3+0x278>

00003150 <__eqsf2>:
    3150:	01755693          	srl	a3,a0,0x17
    3154:	008007b7          	lui	a5,0x800
    3158:	fff78793          	add	a5,a5,-1 # 7fffff <__heap_start+0x7fafff>
    315c:	0175d613          	srl	a2,a1,0x17
    3160:	0ff6f693          	zext.b	a3,a3
    3164:	0ff00893          	li	a7,255
    3168:	00a7f833          	and	a6,a5,a0
    316c:	01f55713          	srl	a4,a0,0x1f
    3170:	00b7f7b3          	and	a5,a5,a1
    3174:	0ff67613          	zext.b	a2,a2
    3178:	01f5d593          	srl	a1,a1,0x1f
    317c:	00100513          	li	a0,1
    3180:	01169a63          	bne	a3,a7,3194 <__eqsf2+0x44>
    3184:	00081663          	bnez	a6,3190 <__eqsf2+0x40>
    3188:	00d61463          	bne	a2,a3,3190 <__eqsf2+0x40>
    318c:	00078a63          	beqz	a5,31a0 <__eqsf2+0x50>
    3190:	00008067          	ret
    3194:	ff160ee3          	beq	a2,a7,3190 <__eqsf2+0x40>
    3198:	fec69ce3          	bne	a3,a2,3190 <__eqsf2+0x40>
    319c:	fef81ae3          	bne	a6,a5,3190 <__eqsf2+0x40>
    31a0:	00000513          	li	a0,0
    31a4:	feb706e3          	beq	a4,a1,3190 <__eqsf2+0x40>
    31a8:	00100513          	li	a0,1
    31ac:	fe0692e3          	bnez	a3,3190 <__eqsf2+0x40>
    31b0:	01003533          	snez	a0,a6
    31b4:	00008067          	ret

000031b8 <__gesf2>:
    31b8:	008007b7          	lui	a5,0x800
    31bc:	fff78793          	add	a5,a5,-1 # 7fffff <__heap_start+0x7fafff>
    31c0:	01755693          	srl	a3,a0,0x17
    31c4:	00a7f633          	and	a2,a5,a0
    31c8:	01f55713          	srl	a4,a0,0x1f
    31cc:	0ff6f693          	zext.b	a3,a3
    31d0:	0175d513          	srl	a0,a1,0x17
    31d4:	0ff00813          	li	a6,255
    31d8:	00b7f7b3          	and	a5,a5,a1
    31dc:	0ff57513          	zext.b	a0,a0
    31e0:	01f5d593          	srl	a1,a1,0x1f
    31e4:	01069463          	bne	a3,a6,31ec <__gesf2+0x34>
    31e8:	04061263          	bnez	a2,322c <__gesf2+0x74>
    31ec:	0ff00813          	li	a6,255
    31f0:	01051463          	bne	a0,a6,31f8 <__gesf2+0x40>
    31f4:	02079c63          	bnez	a5,322c <__gesf2+0x74>
    31f8:	04069a63          	bnez	a3,324c <__gesf2+0x94>
    31fc:	02051c63          	bnez	a0,3234 <__gesf2+0x7c>
    3200:	04061863          	bnez	a2,3250 <__gesf2+0x98>
    3204:	04078263          	beqz	a5,3248 <__gesf2+0x90>
    3208:	00100513          	li	a0,1
    320c:	02059e63          	bnez	a1,3248 <__gesf2+0x90>
    3210:	fff00513          	li	a0,-1
    3214:	00008067          	ret
    3218:	fea6c8e3          	blt	a3,a0,3208 <__gesf2+0x50>
    321c:	02c7e263          	bltu	a5,a2,3240 <__gesf2+0x88>
    3220:	00000513          	li	a0,0
    3224:	02f67263          	bgeu	a2,a5,3248 <__gesf2+0x90>
    3228:	fe1ff06f          	j	3208 <__gesf2+0x50>
    322c:	ffe00513          	li	a0,-2
    3230:	00008067          	ret
    3234:	fc060ae3          	beqz	a2,3208 <__gesf2+0x50>
    3238:	00e59e63          	bne	a1,a4,3254 <__gesf2+0x9c>
    323c:	fcd55ee3          	bge	a0,a3,3218 <__gesf2+0x60>
    3240:	fff00513          	li	a0,-1
    3244:	00058c63          	beqz	a1,325c <__gesf2+0xa4>
    3248:	00008067          	ret
    324c:	fe0516e3          	bnez	a0,3238 <__gesf2+0x80>
    3250:	fe0794e3          	bnez	a5,3238 <__gesf2+0x80>
    3254:	fff00513          	li	a0,-1
    3258:	fe0718e3          	bnez	a4,3248 <__gesf2+0x90>
    325c:	00100513          	li	a0,1
    3260:	00008067          	ret

00003264 <__lesf2>:
    3264:	008007b7          	lui	a5,0x800
    3268:	fff78793          	add	a5,a5,-1 # 7fffff <__heap_start+0x7fafff>
    326c:	01755693          	srl	a3,a0,0x17
    3270:	00a7f633          	and	a2,a5,a0
    3274:	01f55713          	srl	a4,a0,0x1f
    3278:	0ff6f693          	zext.b	a3,a3
    327c:	0175d513          	srl	a0,a1,0x17
    3280:	0ff00813          	li	a6,255
    3284:	00b7f7b3          	and	a5,a5,a1
    3288:	0ff57513          	zext.b	a0,a0
    328c:	01f5d593          	srl	a1,a1,0x1f
    3290:	01069463          	bne	a3,a6,3298 <__lesf2+0x34>
    3294:	04061263          	bnez	a2,32d8 <__lesf2+0x74>
    3298:	0ff00813          	li	a6,255
    329c:	01051463          	bne	a0,a6,32a4 <__lesf2+0x40>
    32a0:	02079c63          	bnez	a5,32d8 <__lesf2+0x74>
    32a4:	04069a63          	bnez	a3,32f8 <__lesf2+0x94>
    32a8:	02051c63          	bnez	a0,32e0 <__lesf2+0x7c>
    32ac:	04061863          	bnez	a2,32fc <__lesf2+0x98>
    32b0:	04078263          	beqz	a5,32f4 <__lesf2+0x90>
    32b4:	00100513          	li	a0,1
    32b8:	02059e63          	bnez	a1,32f4 <__lesf2+0x90>
    32bc:	fff00513          	li	a0,-1
    32c0:	00008067          	ret
    32c4:	fea6c8e3          	blt	a3,a0,32b4 <__lesf2+0x50>
    32c8:	02c7e263          	bltu	a5,a2,32ec <__lesf2+0x88>
    32cc:	00000513          	li	a0,0
    32d0:	02f67263          	bgeu	a2,a5,32f4 <__lesf2+0x90>
    32d4:	fe1ff06f          	j	32b4 <__lesf2+0x50>
    32d8:	00200513          	li	a0,2
    32dc:	00008067          	ret
    32e0:	fc060ae3          	beqz	a2,32b4 <__lesf2+0x50>
    32e4:	00e59e63          	bne	a1,a4,3300 <__lesf2+0x9c>
    32e8:	fcd55ee3          	bge	a0,a3,32c4 <__lesf2+0x60>
    32ec:	fff00513          	li	a0,-1
    32f0:	00058c63          	beqz	a1,3308 <__lesf2+0xa4>
    32f4:	00008067          	ret
    32f8:	fe0516e3          	bnez	a0,32e4 <__lesf2+0x80>
    32fc:	fe0794e3          	bnez	a5,32e4 <__lesf2+0x80>
    3300:	fff00513          	li	a0,-1
    3304:	fe0718e3          	bnez	a4,32f4 <__lesf2+0x90>
    3308:	00100513          	li	a0,1
    330c:	00008067          	ret

00003310 <__mulsf3>:
    3310:	fe010113          	add	sp,sp,-32
    3314:	01212823          	sw	s2,16(sp)
    3318:	01755913          	srl	s2,a0,0x17
    331c:	00912a23          	sw	s1,20(sp)
    3320:	01312623          	sw	s3,12(sp)
    3324:	01512223          	sw	s5,4(sp)
    3328:	00951493          	sll	s1,a0,0x9
    332c:	00112e23          	sw	ra,28(sp)
    3330:	00812c23          	sw	s0,24(sp)
    3334:	01412423          	sw	s4,8(sp)
    3338:	0ff97913          	zext.b	s2,s2
    333c:	00058a93          	mv	s5,a1
    3340:	0094d493          	srl	s1,s1,0x9
    3344:	01f55993          	srl	s3,a0,0x1f
    3348:	14090063          	beqz	s2,3488 <__mulsf3+0x178>
    334c:	0ff00793          	li	a5,255
    3350:	14f90c63          	beq	s2,a5,34a8 <__mulsf3+0x198>
    3354:	00349493          	sll	s1,s1,0x3
    3358:	040007b7          	lui	a5,0x4000
    335c:	00f4e4b3          	or	s1,s1,a5
    3360:	f8190913          	add	s2,s2,-127
    3364:	00000a13          	li	s4,0
    3368:	017ad793          	srl	a5,s5,0x17
    336c:	009a9413          	sll	s0,s5,0x9
    3370:	0ff7f793          	zext.b	a5,a5
    3374:	00945413          	srl	s0,s0,0x9
    3378:	01fada93          	srl	s5,s5,0x1f
    337c:	14078663          	beqz	a5,34c8 <__mulsf3+0x1b8>
    3380:	0ff00713          	li	a4,255
    3384:	16e78263          	beq	a5,a4,34e8 <__mulsf3+0x1d8>
    3388:	00341413          	sll	s0,s0,0x3
    338c:	04000737          	lui	a4,0x4000
    3390:	00e46433          	or	s0,s0,a4
    3394:	f8178793          	add	a5,a5,-127 # 3ffff81 <__heap_start+0x3ffaf81>
    3398:	00000713          	li	a4,0
    339c:	00f90933          	add	s2,s2,a5
    33a0:	002a1793          	sll	a5,s4,0x2
    33a4:	00e7e7b3          	or	a5,a5,a4
    33a8:	00a00693          	li	a3,10
    33ac:	00190813          	add	a6,s2,1
    33b0:	20f6ca63          	blt	a3,a5,35c4 <__mulsf3+0x2b4>
    33b4:	00200693          	li	a3,2
    33b8:	0159c9b3          	xor	s3,s3,s5
    33bc:	14f6c663          	blt	a3,a5,3508 <__mulsf3+0x1f8>
    33c0:	fff78793          	add	a5,a5,-1
    33c4:	00100693          	li	a3,1
    33c8:	16f6f263          	bgeu	a3,a5,352c <__mulsf3+0x21c>
    33cc:	00010eb7          	lui	t4,0x10
    33d0:	fffe8313          	add	t1,t4,-1 # ffff <__heap_start+0xafff>
    33d4:	0104df13          	srl	t5,s1,0x10
    33d8:	01045793          	srl	a5,s0,0x10
    33dc:	0064f4b3          	and	s1,s1,t1
    33e0:	00647433          	and	s0,s0,t1
    33e4:	00048513          	mv	a0,s1
    33e8:	00040593          	mv	a1,s0
    33ec:	165000ef          	jal	3d50 <__mulsi3>
    33f0:	00050893          	mv	a7,a0
    33f4:	00078593          	mv	a1,a5
    33f8:	00048513          	mv	a0,s1
    33fc:	155000ef          	jal	3d50 <__mulsi3>
    3400:	00050713          	mv	a4,a0
    3404:	00040593          	mv	a1,s0
    3408:	000f0513          	mv	a0,t5
    340c:	145000ef          	jal	3d50 <__mulsi3>
    3410:	00050e13          	mv	t3,a0
    3414:	00078593          	mv	a1,a5
    3418:	000f0513          	mv	a0,t5
    341c:	135000ef          	jal	3d50 <__mulsi3>
    3420:	0108d793          	srl	a5,a7,0x10
    3424:	01c70733          	add	a4,a4,t3
    3428:	00e787b3          	add	a5,a5,a4
    342c:	00050693          	mv	a3,a0
    3430:	01c7f463          	bgeu	a5,t3,3438 <__mulsf3+0x128>
    3434:	01d506b3          	add	a3,a0,t4
    3438:	0067f733          	and	a4,a5,t1
    343c:	01071713          	sll	a4,a4,0x10
    3440:	0068f8b3          	and	a7,a7,t1
    3444:	01170733          	add	a4,a4,a7
    3448:	0107d793          	srl	a5,a5,0x10
    344c:	00671413          	sll	s0,a4,0x6
    3450:	00d787b3          	add	a5,a5,a3
    3454:	01a75713          	srl	a4,a4,0x1a
    3458:	00679793          	sll	a5,a5,0x6
    345c:	00803433          	snez	s0,s0
    3460:	00e46433          	or	s0,s0,a4
    3464:	00479713          	sll	a4,a5,0x4
    3468:	0087e433          	or	s0,a5,s0
    346c:	00075a63          	bgez	a4,3480 <__mulsf3+0x170>
    3470:	00145793          	srl	a5,s0,0x1
    3474:	00147413          	and	s0,s0,1
    3478:	0087e433          	or	s0,a5,s0
    347c:	00080913          	mv	s2,a6
    3480:	00090813          	mv	a6,s2
    3484:	0c00006f          	j	3544 <__mulsf3+0x234>
    3488:	02048a63          	beqz	s1,34bc <__mulsf3+0x1ac>
    348c:	00048513          	mv	a0,s1
    3490:	199000ef          	jal	3e28 <__clzsi2>
    3494:	ffb50793          	add	a5,a0,-5
    3498:	f8a00913          	li	s2,-118
    349c:	00f494b3          	sll	s1,s1,a5
    34a0:	40a90933          	sub	s2,s2,a0
    34a4:	ec1ff06f          	j	3364 <__mulsf3+0x54>
    34a8:	0ff00913          	li	s2,255
    34ac:	00200a13          	li	s4,2
    34b0:	ea048ce3          	beqz	s1,3368 <__mulsf3+0x58>
    34b4:	00300a13          	li	s4,3
    34b8:	eb1ff06f          	j	3368 <__mulsf3+0x58>
    34bc:	00000913          	li	s2,0
    34c0:	00100a13          	li	s4,1
    34c4:	ea5ff06f          	j	3368 <__mulsf3+0x58>
    34c8:	02040a63          	beqz	s0,34fc <__mulsf3+0x1ec>
    34cc:	00040513          	mv	a0,s0
    34d0:	159000ef          	jal	3e28 <__clzsi2>
    34d4:	ffb50793          	add	a5,a0,-5
    34d8:	00f41433          	sll	s0,s0,a5
    34dc:	f8a00793          	li	a5,-118
    34e0:	40a787b3          	sub	a5,a5,a0
    34e4:	eb5ff06f          	j	3398 <__mulsf3+0x88>
    34e8:	0ff00793          	li	a5,255
    34ec:	00200713          	li	a4,2
    34f0:	ea0406e3          	beqz	s0,339c <__mulsf3+0x8c>
    34f4:	00300713          	li	a4,3
    34f8:	ea5ff06f          	j	339c <__mulsf3+0x8c>
    34fc:	00000793          	li	a5,0
    3500:	00100713          	li	a4,1
    3504:	e99ff06f          	j	339c <__mulsf3+0x8c>
    3508:	00100693          	li	a3,1
    350c:	00f697b3          	sll	a5,a3,a5
    3510:	5307f693          	and	a3,a5,1328
    3514:	0c069063          	bnez	a3,35d4 <__mulsf3+0x2c4>
    3518:	2407f693          	and	a3,a5,576
    351c:	12069263          	bnez	a3,3640 <__mulsf3+0x330>
    3520:	0887f793          	and	a5,a5,136
    3524:	ea0784e3          	beqz	a5,33cc <__mulsf3+0xbc>
    3528:	000a8993          	mv	s3,s5
    352c:	00200793          	li	a5,2
    3530:	10f70263          	beq	a4,a5,3634 <__mulsf3+0x324>
    3534:	00300793          	li	a5,3
    3538:	10f70463          	beq	a4,a5,3640 <__mulsf3+0x330>
    353c:	00100793          	li	a5,1
    3540:	10f70863          	beq	a4,a5,3650 <__mulsf3+0x340>
    3544:	07f80713          	add	a4,a6,127
    3548:	08e05c63          	blez	a4,35e0 <__mulsf3+0x2d0>
    354c:	00747793          	and	a5,s0,7
    3550:	00078a63          	beqz	a5,3564 <__mulsf3+0x254>
    3554:	00f47793          	and	a5,s0,15
    3558:	00400693          	li	a3,4
    355c:	00d78463          	beq	a5,a3,3564 <__mulsf3+0x254>
    3560:	00440413          	add	s0,s0,4 # 400004 <__heap_start+0x3fb004>
    3564:	00441793          	sll	a5,s0,0x4
    3568:	0007da63          	bgez	a5,357c <__mulsf3+0x26c>
    356c:	f80007b7          	lui	a5,0xf8000
    3570:	fff78793          	add	a5,a5,-1 # f7ffffff <__heap_start+0xf7ffafff>
    3574:	00f47433          	and	s0,s0,a5
    3578:	08080713          	add	a4,a6,128
    357c:	0fe00793          	li	a5,254
    3580:	0ae7ca63          	blt	a5,a4,3634 <__mulsf3+0x324>
    3584:	00345793          	srl	a5,s0,0x3
    3588:	01c12083          	lw	ra,28(sp)
    358c:	01812403          	lw	s0,24(sp)
    3590:	00979793          	sll	a5,a5,0x9
    3594:	01771513          	sll	a0,a4,0x17
    3598:	0097d793          	srl	a5,a5,0x9
    359c:	01f99993          	sll	s3,s3,0x1f
    35a0:	00f56533          	or	a0,a0,a5
    35a4:	01412483          	lw	s1,20(sp)
    35a8:	01012903          	lw	s2,16(sp)
    35ac:	00812a03          	lw	s4,8(sp)
    35b0:	00412a83          	lw	s5,4(sp)
    35b4:	01356533          	or	a0,a0,s3
    35b8:	00c12983          	lw	s3,12(sp)
    35bc:	02010113          	add	sp,sp,32
    35c0:	00008067          	ret
    35c4:	00f00693          	li	a3,15
    35c8:	06d78c63          	beq	a5,a3,3640 <__mulsf3+0x330>
    35cc:	00b00693          	li	a3,11
    35d0:	f4d78ce3          	beq	a5,a3,3528 <__mulsf3+0x218>
    35d4:	00048413          	mv	s0,s1
    35d8:	000a0713          	mv	a4,s4
    35dc:	f51ff06f          	j	352c <__mulsf3+0x21c>
    35e0:	00100793          	li	a5,1
    35e4:	40e787b3          	sub	a5,a5,a4
    35e8:	01b00713          	li	a4,27
    35ec:	06f74263          	blt	a4,a5,3650 <__mulsf3+0x340>
    35f0:	09e80813          	add	a6,a6,158
    35f4:	01041833          	sll	a6,s0,a6
    35f8:	00f457b3          	srl	a5,s0,a5
    35fc:	01003833          	snez	a6,a6
    3600:	0107e7b3          	or	a5,a5,a6
    3604:	0077f713          	and	a4,a5,7
    3608:	00070a63          	beqz	a4,361c <__mulsf3+0x30c>
    360c:	00f7f713          	and	a4,a5,15
    3610:	00400693          	li	a3,4
    3614:	00d70463          	beq	a4,a3,361c <__mulsf3+0x30c>
    3618:	00478793          	add	a5,a5,4
    361c:	00579713          	sll	a4,a5,0x5
    3620:	0037d793          	srl	a5,a5,0x3
    3624:	02075863          	bgez	a4,3654 <__mulsf3+0x344>
    3628:	00000793          	li	a5,0
    362c:	00100713          	li	a4,1
    3630:	f59ff06f          	j	3588 <__mulsf3+0x278>
    3634:	00000793          	li	a5,0
    3638:	0ff00713          	li	a4,255
    363c:	f4dff06f          	j	3588 <__mulsf3+0x278>
    3640:	004007b7          	lui	a5,0x400
    3644:	0ff00713          	li	a4,255
    3648:	00000993          	li	s3,0
    364c:	f3dff06f          	j	3588 <__mulsf3+0x278>
    3650:	00000793          	li	a5,0
    3654:	00000713          	li	a4,0
    3658:	f31ff06f          	j	3588 <__mulsf3+0x278>

0000365c <__subsf3>:
    365c:	008006b7          	lui	a3,0x800
    3660:	fff68693          	add	a3,a3,-1 # 7fffff <__heap_start+0x7fafff>
    3664:	ff010113          	add	sp,sp,-16
    3668:	00a6f633          	and	a2,a3,a0
    366c:	01755713          	srl	a4,a0,0x17
    3670:	00812423          	sw	s0,8(sp)
    3674:	01f55413          	srl	s0,a0,0x1f
    3678:	00361513          	sll	a0,a2,0x3
    367c:	0175d613          	srl	a2,a1,0x17
    3680:	00b6f6b3          	and	a3,a3,a1
    3684:	01212023          	sw	s2,0(sp)
    3688:	00112623          	sw	ra,12(sp)
    368c:	0ff77913          	zext.b	s2,a4
    3690:	00912223          	sw	s1,4(sp)
    3694:	0ff67613          	zext.b	a2,a2
    3698:	0ff00713          	li	a4,255
    369c:	01f5d593          	srl	a1,a1,0x1f
    36a0:	00369793          	sll	a5,a3,0x3
    36a4:	00e61463          	bne	a2,a4,36ac <__subsf3+0x50>
    36a8:	00079463          	bnez	a5,36b0 <__subsf3+0x54>
    36ac:	0015c593          	xor	a1,a1,1
    36b0:	40c906b3          	sub	a3,s2,a2
    36b4:	18859063          	bne	a1,s0,3834 <__subsf3+0x1d8>
    36b8:	08d05c63          	blez	a3,3750 <__subsf3+0xf4>
    36bc:	02061663          	bnez	a2,36e8 <__subsf3+0x8c>
    36c0:	02078063          	beqz	a5,36e0 <__subsf3+0x84>
    36c4:	fff90693          	add	a3,s2,-1
    36c8:	00069863          	bnez	a3,36d8 <__subsf3+0x7c>
    36cc:	00a787b3          	add	a5,a5,a0
    36d0:	00100913          	li	s2,1
    36d4:	04c0006f          	j	3720 <__subsf3+0xc4>
    36d8:	0ff00713          	li	a4,255
    36dc:	00e91e63          	bne	s2,a4,36f8 <__subsf3+0x9c>
    36e0:	00050793          	mv	a5,a0
    36e4:	10c0006f          	j	37f0 <__subsf3+0x194>
    36e8:	0ff00713          	li	a4,255
    36ec:	fee90ae3          	beq	s2,a4,36e0 <__subsf3+0x84>
    36f0:	04000737          	lui	a4,0x4000
    36f4:	00e7e7b3          	or	a5,a5,a4
    36f8:	01b00613          	li	a2,27
    36fc:	00100713          	li	a4,1
    3700:	00d64e63          	blt	a2,a3,371c <__subsf3+0xc0>
    3704:	02000613          	li	a2,32
    3708:	00d7d733          	srl	a4,a5,a3
    370c:	40d606b3          	sub	a3,a2,a3
    3710:	00d796b3          	sll	a3,a5,a3
    3714:	00d036b3          	snez	a3,a3
    3718:	00d76733          	or	a4,a4,a3
    371c:	00a707b3          	add	a5,a4,a0
    3720:	00579713          	sll	a4,a5,0x5
    3724:	0c075663          	bgez	a4,37f0 <__subsf3+0x194>
    3728:	00190913          	add	s2,s2,1
    372c:	0ff00713          	li	a4,255
    3730:	2ce90a63          	beq	s2,a4,3a04 <__subsf3+0x3a8>
    3734:	7e000737          	lui	a4,0x7e000
    3738:	0017f693          	and	a3,a5,1
    373c:	fff70713          	add	a4,a4,-1 # 7dffffff <__heap_start+0x7dffafff>
    3740:	0017d793          	srl	a5,a5,0x1
    3744:	00e7f7b3          	and	a5,a5,a4
    3748:	00d7e7b3          	or	a5,a5,a3
    374c:	0a40006f          	j	37f0 <__subsf3+0x194>
    3750:	06068663          	beqz	a3,37bc <__subsf3+0x160>
    3754:	41260733          	sub	a4,a2,s2
    3758:	02091063          	bnez	s2,3778 <__subsf3+0x11c>
    375c:	0c050863          	beqz	a0,382c <__subsf3+0x1d0>
    3760:	fff70693          	add	a3,a4,-1
    3764:	f60684e3          	beqz	a3,36cc <__subsf3+0x70>
    3768:	0ff00593          	li	a1,255
    376c:	02b71063          	bne	a4,a1,378c <__subsf3+0x130>
    3770:	0ff00913          	li	s2,255
    3774:	07c0006f          	j	37f0 <__subsf3+0x194>
    3778:	0ff00693          	li	a3,255
    377c:	fed60ae3          	beq	a2,a3,3770 <__subsf3+0x114>
    3780:	040006b7          	lui	a3,0x4000
    3784:	00d56533          	or	a0,a0,a3
    3788:	00070693          	mv	a3,a4
    378c:	01b00593          	li	a1,27
    3790:	00100713          	li	a4,1
    3794:	00d5ce63          	blt	a1,a3,37b0 <__subsf3+0x154>
    3798:	02000713          	li	a4,32
    379c:	40d70733          	sub	a4,a4,a3
    37a0:	00e51733          	sll	a4,a0,a4
    37a4:	00d555b3          	srl	a1,a0,a3
    37a8:	00e03733          	snez	a4,a4
    37ac:	00e5e733          	or	a4,a1,a4
    37b0:	00e787b3          	add	a5,a5,a4
    37b4:	00060913          	mv	s2,a2
    37b8:	f69ff06f          	j	3720 <__subsf3+0xc4>
    37bc:	00190713          	add	a4,s2,1
    37c0:	0fe77693          	and	a3,a4,254
    37c4:	04069c63          	bnez	a3,381c <__subsf3+0x1c0>
    37c8:	04091263          	bnez	s2,380c <__subsf3+0x1b0>
    37cc:	02050263          	beqz	a0,37f0 <__subsf3+0x194>
    37d0:	f00788e3          	beqz	a5,36e0 <__subsf3+0x84>
    37d4:	00a787b3          	add	a5,a5,a0
    37d8:	00579713          	sll	a4,a5,0x5
    37dc:	00075a63          	bgez	a4,37f0 <__subsf3+0x194>
    37e0:	fc000737          	lui	a4,0xfc000
    37e4:	fff70713          	add	a4,a4,-1 # fbffffff <__heap_start+0xfbffafff>
    37e8:	00e7f7b3          	and	a5,a5,a4
    37ec:	00100913          	li	s2,1
    37f0:	0077f713          	and	a4,a5,7
    37f4:	20070a63          	beqz	a4,3a08 <__subsf3+0x3ac>
    37f8:	00f7f713          	and	a4,a5,15
    37fc:	00400693          	li	a3,4
    3800:	20d70463          	beq	a4,a3,3a08 <__subsf3+0x3ac>
    3804:	00478793          	add	a5,a5,4 # 400004 <__heap_start+0x3fb004>
    3808:	2000006f          	j	3a08 <__subsf3+0x3ac>
    380c:	f60502e3          	beqz	a0,3770 <__subsf3+0x114>
    3810:	16079663          	bnez	a5,397c <__subsf3+0x320>
    3814:	00050793          	mv	a5,a0
    3818:	f59ff06f          	j	3770 <__subsf3+0x114>
    381c:	0ff00693          	li	a3,255
    3820:	1ed70063          	beq	a4,a3,3a00 <__subsf3+0x3a4>
    3824:	00f507b3          	add	a5,a0,a5
    3828:	0017d793          	srl	a5,a5,0x1
    382c:	00070913          	mv	s2,a4
    3830:	fc1ff06f          	j	37f0 <__subsf3+0x194>
    3834:	06d05e63          	blez	a3,38b0 <__subsf3+0x254>
    3838:	06061263          	bnez	a2,389c <__subsf3+0x240>
    383c:	ea0782e3          	beqz	a5,36e0 <__subsf3+0x84>
    3840:	fff90693          	add	a3,s2,-1
    3844:	00069863          	bnez	a3,3854 <__subsf3+0x1f8>
    3848:	40f507b3          	sub	a5,a0,a5
    384c:	00100913          	li	s2,1
    3850:	0340006f          	j	3884 <__subsf3+0x228>
    3854:	0ff00713          	li	a4,255
    3858:	e8e904e3          	beq	s2,a4,36e0 <__subsf3+0x84>
    385c:	01b00613          	li	a2,27
    3860:	00100713          	li	a4,1
    3864:	00d64e63          	blt	a2,a3,3880 <__subsf3+0x224>
    3868:	02000613          	li	a2,32
    386c:	00d7d733          	srl	a4,a5,a3
    3870:	40d606b3          	sub	a3,a2,a3
    3874:	00d796b3          	sll	a3,a5,a3
    3878:	00d036b3          	snez	a3,a3
    387c:	00d76733          	or	a4,a4,a3
    3880:	40e507b3          	sub	a5,a0,a4
    3884:	00579713          	sll	a4,a5,0x5
    3888:	f60754e3          	bgez	a4,37f0 <__subsf3+0x194>
    388c:	040004b7          	lui	s1,0x4000
    3890:	fff48493          	add	s1,s1,-1 # 3ffffff <__heap_start+0x3ffafff>
    3894:	0097f4b3          	and	s1,a5,s1
    3898:	1080006f          	j	39a0 <__subsf3+0x344>
    389c:	0ff00713          	li	a4,255
    38a0:	e4e900e3          	beq	s2,a4,36e0 <__subsf3+0x84>
    38a4:	04000737          	lui	a4,0x4000
    38a8:	00e7e7b3          	or	a5,a5,a4
    38ac:	fb1ff06f          	j	385c <__subsf3+0x200>
    38b0:	06068e63          	beqz	a3,392c <__subsf3+0x2d0>
    38b4:	41260733          	sub	a4,a2,s2
    38b8:	02091663          	bnez	s2,38e4 <__subsf3+0x288>
    38bc:	1a050e63          	beqz	a0,3a78 <__subsf3+0x41c>
    38c0:	fff70693          	add	a3,a4,-1 # 3ffffff <__heap_start+0x3ffafff>
    38c4:	00069863          	bnez	a3,38d4 <__subsf3+0x278>
    38c8:	40a787b3          	sub	a5,a5,a0
    38cc:	00058413          	mv	s0,a1
    38d0:	f7dff06f          	j	384c <__subsf3+0x1f0>
    38d4:	0ff00813          	li	a6,255
    38d8:	03071063          	bne	a4,a6,38f8 <__subsf3+0x29c>
    38dc:	0ff00913          	li	s2,255
    38e0:	19c0006f          	j	3a7c <__subsf3+0x420>
    38e4:	0ff00693          	li	a3,255
    38e8:	fed60ae3          	beq	a2,a3,38dc <__subsf3+0x280>
    38ec:	040006b7          	lui	a3,0x4000
    38f0:	00d56533          	or	a0,a0,a3
    38f4:	00070693          	mv	a3,a4
    38f8:	01b00813          	li	a6,27
    38fc:	00100713          	li	a4,1
    3900:	00d84e63          	blt	a6,a3,391c <__subsf3+0x2c0>
    3904:	02000713          	li	a4,32
    3908:	40d70733          	sub	a4,a4,a3
    390c:	00e51733          	sll	a4,a0,a4
    3910:	00d55833          	srl	a6,a0,a3
    3914:	00e03733          	snez	a4,a4
    3918:	00e86733          	or	a4,a6,a4
    391c:	40e787b3          	sub	a5,a5,a4
    3920:	00060913          	mv	s2,a2
    3924:	00058413          	mv	s0,a1
    3928:	f5dff06f          	j	3884 <__subsf3+0x228>
    392c:	00190713          	add	a4,s2,1
    3930:	0fe77713          	and	a4,a4,254
    3934:	04071c63          	bnez	a4,398c <__subsf3+0x330>
    3938:	02091c63          	bnez	s2,3970 <__subsf3+0x314>
    393c:	00051863          	bnez	a0,394c <__subsf3+0x2f0>
    3940:	12079e63          	bnez	a5,3a7c <__subsf3+0x420>
    3944:	00000413          	li	s0,0
    3948:	0c00006f          	j	3a08 <__subsf3+0x3ac>
    394c:	d8078ae3          	beqz	a5,36e0 <__subsf3+0x84>
    3950:	40f50733          	sub	a4,a0,a5
    3954:	00571693          	sll	a3,a4,0x5
    3958:	40a787b3          	sub	a5,a5,a0
    395c:	1206c063          	bltz	a3,3a7c <__subsf3+0x420>
    3960:	00070793          	mv	a5,a4
    3964:	e80716e3          	bnez	a4,37f0 <__subsf3+0x194>
    3968:	00000793          	li	a5,0
    396c:	fd9ff06f          	j	3944 <__subsf3+0x2e8>
    3970:	ea0510e3          	bnez	a0,3810 <__subsf3+0x1b4>
    3974:	00058413          	mv	s0,a1
    3978:	de079ce3          	bnez	a5,3770 <__subsf3+0x114>
    397c:	00000413          	li	s0,0
    3980:	020007b7          	lui	a5,0x2000
    3984:	0ff00913          	li	s2,255
    3988:	0800006f          	j	3a08 <__subsf3+0x3ac>
    398c:	40f504b3          	sub	s1,a0,a5
    3990:	00549713          	sll	a4,s1,0x5
    3994:	04075463          	bgez	a4,39dc <__subsf3+0x380>
    3998:	40a784b3          	sub	s1,a5,a0
    399c:	00058413          	mv	s0,a1
    39a0:	00048513          	mv	a0,s1
    39a4:	484000ef          	jal	3e28 <__clzsi2>
    39a8:	ffb50513          	add	a0,a0,-5
    39ac:	00a494b3          	sll	s1,s1,a0
    39b0:	03254e63          	blt	a0,s2,39ec <__subsf3+0x390>
    39b4:	41250533          	sub	a0,a0,s2
    39b8:	00150513          	add	a0,a0,1
    39bc:	02000713          	li	a4,32
    39c0:	40a70733          	sub	a4,a4,a0
    39c4:	00a4d7b3          	srl	a5,s1,a0
    39c8:	00e494b3          	sll	s1,s1,a4
    39cc:	009034b3          	snez	s1,s1
    39d0:	0097e7b3          	or	a5,a5,s1
    39d4:	00000913          	li	s2,0
    39d8:	e19ff06f          	j	37f0 <__subsf3+0x194>
    39dc:	fc0492e3          	bnez	s1,39a0 <__subsf3+0x344>
    39e0:	00000793          	li	a5,0
    39e4:	00000913          	li	s2,0
    39e8:	f5dff06f          	j	3944 <__subsf3+0x2e8>
    39ec:	fc0007b7          	lui	a5,0xfc000
    39f0:	fff78793          	add	a5,a5,-1 # fbffffff <__heap_start+0xfbffafff>
    39f4:	40a90933          	sub	s2,s2,a0
    39f8:	00f4f7b3          	and	a5,s1,a5
    39fc:	df5ff06f          	j	37f0 <__subsf3+0x194>
    3a00:	0ff00913          	li	s2,255
    3a04:	00000793          	li	a5,0
    3a08:	00579713          	sll	a4,a5,0x5
    3a0c:	00075e63          	bgez	a4,3a28 <__subsf3+0x3cc>
    3a10:	00190913          	add	s2,s2,1
    3a14:	0ff00713          	li	a4,255
    3a18:	06e90663          	beq	s2,a4,3a84 <__subsf3+0x428>
    3a1c:	fc000737          	lui	a4,0xfc000
    3a20:	fff70713          	add	a4,a4,-1 # fbffffff <__heap_start+0xfbffafff>
    3a24:	00e7f7b3          	and	a5,a5,a4
    3a28:	0ff00713          	li	a4,255
    3a2c:	0037d793          	srl	a5,a5,0x3
    3a30:	00e91863          	bne	s2,a4,3a40 <__subsf3+0x3e4>
    3a34:	00078663          	beqz	a5,3a40 <__subsf3+0x3e4>
    3a38:	004007b7          	lui	a5,0x400
    3a3c:	00000413          	li	s0,0
    3a40:	00c12083          	lw	ra,12(sp)
    3a44:	01791713          	sll	a4,s2,0x17
    3a48:	01f41513          	sll	a0,s0,0x1f
    3a4c:	7f8006b7          	lui	a3,0x7f800
    3a50:	00812403          	lw	s0,8(sp)
    3a54:	00979793          	sll	a5,a5,0x9
    3a58:	00d77733          	and	a4,a4,a3
    3a5c:	0097d793          	srl	a5,a5,0x9
    3a60:	00f767b3          	or	a5,a4,a5
    3a64:	00412483          	lw	s1,4(sp)
    3a68:	00012903          	lw	s2,0(sp)
    3a6c:	00a7e533          	or	a0,a5,a0
    3a70:	01010113          	add	sp,sp,16
    3a74:	00008067          	ret
    3a78:	00070913          	mv	s2,a4
    3a7c:	00058413          	mv	s0,a1
    3a80:	d71ff06f          	j	37f0 <__subsf3+0x194>
    3a84:	00000793          	li	a5,0
    3a88:	fa1ff06f          	j	3a28 <__subsf3+0x3cc>

00003a8c <__fixsfsi>:
    3a8c:	00800637          	lui	a2,0x800
    3a90:	01755713          	srl	a4,a0,0x17
    3a94:	fff60793          	add	a5,a2,-1 # 7fffff <__heap_start+0x7fafff>
    3a98:	0ff77713          	zext.b	a4,a4
    3a9c:	07e00593          	li	a1,126
    3aa0:	00a7f7b3          	and	a5,a5,a0
    3aa4:	01f55693          	srl	a3,a0,0x1f
    3aa8:	04e5d663          	bge	a1,a4,3af4 <__fixsfsi+0x68>
    3aac:	09d00593          	li	a1,157
    3ab0:	00e5da63          	bge	a1,a4,3ac4 <__fixsfsi+0x38>
    3ab4:	80000537          	lui	a0,0x80000
    3ab8:	fff50513          	add	a0,a0,-1 # 7fffffff <__heap_start+0x7fffafff>
    3abc:	00a68533          	add	a0,a3,a0
    3ac0:	00008067          	ret
    3ac4:	00c7e533          	or	a0,a5,a2
    3ac8:	09500793          	li	a5,149
    3acc:	00e7dc63          	bge	a5,a4,3ae4 <__fixsfsi+0x58>
    3ad0:	f6a70713          	add	a4,a4,-150
    3ad4:	00e51533          	sll	a0,a0,a4
    3ad8:	02068063          	beqz	a3,3af8 <__fixsfsi+0x6c>
    3adc:	40a00533          	neg	a0,a0
    3ae0:	00008067          	ret
    3ae4:	09600793          	li	a5,150
    3ae8:	40e787b3          	sub	a5,a5,a4
    3aec:	00f55533          	srl	a0,a0,a5
    3af0:	fe9ff06f          	j	3ad8 <__fixsfsi+0x4c>
    3af4:	00000513          	li	a0,0
    3af8:	00008067          	ret

00003afc <__extendsfdf2>:
    3afc:	01755713          	srl	a4,a0,0x17
    3b00:	0ff77713          	zext.b	a4,a4
    3b04:	ff010113          	add	sp,sp,-16
    3b08:	00170793          	add	a5,a4,1
    3b0c:	00812423          	sw	s0,8(sp)
    3b10:	00912223          	sw	s1,4(sp)
    3b14:	00951413          	sll	s0,a0,0x9
    3b18:	00112623          	sw	ra,12(sp)
    3b1c:	0fe7f793          	and	a5,a5,254
    3b20:	00945413          	srl	s0,s0,0x9
    3b24:	01f55493          	srl	s1,a0,0x1f
    3b28:	04078263          	beqz	a5,3b6c <__extendsfdf2+0x70>
    3b2c:	00345793          	srl	a5,s0,0x3
    3b30:	38070713          	add	a4,a4,896
    3b34:	01d41413          	sll	s0,s0,0x1d
    3b38:	00c79793          	sll	a5,a5,0xc
    3b3c:	00c7d793          	srl	a5,a5,0xc
    3b40:	01471713          	sll	a4,a4,0x14
    3b44:	01f49513          	sll	a0,s1,0x1f
    3b48:	00f76733          	or	a4,a4,a5
    3b4c:	00c12083          	lw	ra,12(sp)
    3b50:	00a767b3          	or	a5,a4,a0
    3b54:	00040513          	mv	a0,s0
    3b58:	00812403          	lw	s0,8(sp)
    3b5c:	00412483          	lw	s1,4(sp)
    3b60:	00078593          	mv	a1,a5
    3b64:	01010113          	add	sp,sp,16
    3b68:	00008067          	ret
    3b6c:	04071663          	bnez	a4,3bb8 <__extendsfdf2+0xbc>
    3b70:	00000793          	li	a5,0
    3b74:	fc0402e3          	beqz	s0,3b38 <__extendsfdf2+0x3c>
    3b78:	00040513          	mv	a0,s0
    3b7c:	2ac000ef          	jal	3e28 <__clzsi2>
    3b80:	00a00793          	li	a5,10
    3b84:	02a7c263          	blt	a5,a0,3ba8 <__extendsfdf2+0xac>
    3b88:	00b00793          	li	a5,11
    3b8c:	40a787b3          	sub	a5,a5,a0
    3b90:	01550713          	add	a4,a0,21
    3b94:	00f457b3          	srl	a5,s0,a5
    3b98:	00e41433          	sll	s0,s0,a4
    3b9c:	38900713          	li	a4,905
    3ba0:	40a70733          	sub	a4,a4,a0
    3ba4:	f95ff06f          	j	3b38 <__extendsfdf2+0x3c>
    3ba8:	ff550793          	add	a5,a0,-11
    3bac:	00f417b3          	sll	a5,s0,a5
    3bb0:	00000413          	li	s0,0
    3bb4:	fe9ff06f          	j	3b9c <__extendsfdf2+0xa0>
    3bb8:	00000793          	li	a5,0
    3bbc:	00040a63          	beqz	s0,3bd0 <__extendsfdf2+0xd4>
    3bc0:	00345793          	srl	a5,s0,0x3
    3bc4:	00080737          	lui	a4,0x80
    3bc8:	01d41413          	sll	s0,s0,0x1d
    3bcc:	00e7e7b3          	or	a5,a5,a4
    3bd0:	7ff00713          	li	a4,2047
    3bd4:	f65ff06f          	j	3b38 <__extendsfdf2+0x3c>

00003bd8 <__truncdfsf2>:
    3bd8:	0145d613          	srl	a2,a1,0x14
    3bdc:	7ff67613          	and	a2,a2,2047
    3be0:	00c59793          	sll	a5,a1,0xc
    3be4:	00160713          	add	a4,a2,1
    3be8:	0097d793          	srl	a5,a5,0x9
    3bec:	01d55693          	srl	a3,a0,0x1d
    3bf0:	7fe77713          	and	a4,a4,2046
    3bf4:	00f6e6b3          	or	a3,a3,a5
    3bf8:	01f5d593          	srl	a1,a1,0x1f
    3bfc:	00351793          	sll	a5,a0,0x3
    3c00:	0a070663          	beqz	a4,3cac <__truncdfsf2+0xd4>
    3c04:	c8060713          	add	a4,a2,-896
    3c08:	0fe00813          	li	a6,254
    3c0c:	0ce84263          	blt	a6,a4,3cd0 <__truncdfsf2+0xf8>
    3c10:	08e04063          	bgtz	a4,3c90 <__truncdfsf2+0xb8>
    3c14:	fe900513          	li	a0,-23
    3c18:	10a74a63          	blt	a4,a0,3d2c <__truncdfsf2+0x154>
    3c1c:	00800537          	lui	a0,0x800
    3c20:	00a6e6b3          	or	a3,a3,a0
    3c24:	01e00513          	li	a0,30
    3c28:	40e50533          	sub	a0,a0,a4
    3c2c:	01f00813          	li	a6,31
    3c30:	02a84863          	blt	a6,a0,3c60 <__truncdfsf2+0x88>
    3c34:	c8260613          	add	a2,a2,-894
    3c38:	00a7d533          	srl	a0,a5,a0
    3c3c:	00c797b3          	sll	a5,a5,a2
    3c40:	00f037b3          	snez	a5,a5
    3c44:	00c696b3          	sll	a3,a3,a2
    3c48:	00d7e7b3          	or	a5,a5,a3
    3c4c:	00f567b3          	or	a5,a0,a5
    3c50:	00000713          	li	a4,0
    3c54:	0077f693          	and	a3,a5,7
    3c58:	08068063          	beqz	a3,3cd8 <__truncdfsf2+0x100>
    3c5c:	0d80006f          	j	3d34 <__truncdfsf2+0x15c>
    3c60:	ffe00813          	li	a6,-2
    3c64:	40e80833          	sub	a6,a6,a4
    3c68:	02000893          	li	a7,32
    3c6c:	0106d833          	srl	a6,a3,a6
    3c70:	00000713          	li	a4,0
    3c74:	01150663          	beq	a0,a7,3c80 <__truncdfsf2+0xa8>
    3c78:	ca260613          	add	a2,a2,-862
    3c7c:	00c69733          	sll	a4,a3,a2
    3c80:	00f76733          	or	a4,a4,a5
    3c84:	00e03733          	snez	a4,a4
    3c88:	00e867b3          	or	a5,a6,a4
    3c8c:	fc5ff06f          	j	3c50 <__truncdfsf2+0x78>
    3c90:	00651513          	sll	a0,a0,0x6
    3c94:	00a03533          	snez	a0,a0
    3c98:	00369693          	sll	a3,a3,0x3
    3c9c:	01d7d793          	srl	a5,a5,0x1d
    3ca0:	00d566b3          	or	a3,a0,a3
    3ca4:	00f6e7b3          	or	a5,a3,a5
    3ca8:	fadff06f          	j	3c54 <__truncdfsf2+0x7c>
    3cac:	00f6e7b3          	or	a5,a3,a5
    3cb0:	00061663          	bnez	a2,3cbc <__truncdfsf2+0xe4>
    3cb4:	00f037b3          	snez	a5,a5
    3cb8:	f99ff06f          	j	3c50 <__truncdfsf2+0x78>
    3cbc:	0ff00713          	li	a4,255
    3cc0:	00078c63          	beqz	a5,3cd8 <__truncdfsf2+0x100>
    3cc4:	00369693          	sll	a3,a3,0x3
    3cc8:	020007b7          	lui	a5,0x2000
    3ccc:	fd9ff06f          	j	3ca4 <__truncdfsf2+0xcc>
    3cd0:	00000793          	li	a5,0
    3cd4:	0ff00713          	li	a4,255
    3cd8:	00579693          	sll	a3,a5,0x5
    3cdc:	0006de63          	bgez	a3,3cf8 <__truncdfsf2+0x120>
    3ce0:	00170713          	add	a4,a4,1 # 80001 <__heap_start+0x7b001>
    3ce4:	0ff00693          	li	a3,255
    3ce8:	06d70063          	beq	a4,a3,3d48 <__truncdfsf2+0x170>
    3cec:	fc0006b7          	lui	a3,0xfc000
    3cf0:	fff68693          	add	a3,a3,-1 # fbffffff <__heap_start+0xfbffafff>
    3cf4:	00d7f7b3          	and	a5,a5,a3
    3cf8:	0ff00693          	li	a3,255
    3cfc:	0037d793          	srl	a5,a5,0x3
    3d00:	00d71863          	bne	a4,a3,3d10 <__truncdfsf2+0x138>
    3d04:	00078663          	beqz	a5,3d10 <__truncdfsf2+0x138>
    3d08:	004007b7          	lui	a5,0x400
    3d0c:	00000593          	li	a1,0
    3d10:	7f8006b7          	lui	a3,0x7f800
    3d14:	01771713          	sll	a4,a4,0x17
    3d18:	00d77733          	and	a4,a4,a3
    3d1c:	00f76733          	or	a4,a4,a5
    3d20:	01f59513          	sll	a0,a1,0x1f
    3d24:	00a76533          	or	a0,a4,a0
    3d28:	00008067          	ret
    3d2c:	00100793          	li	a5,1
    3d30:	00000713          	li	a4,0
    3d34:	00f7f693          	and	a3,a5,15
    3d38:	00400613          	li	a2,4
    3d3c:	f8c68ee3          	beq	a3,a2,3cd8 <__truncdfsf2+0x100>
    3d40:	00478793          	add	a5,a5,4 # 400004 <__heap_start+0x3fb004>
    3d44:	f95ff06f          	j	3cd8 <__truncdfsf2+0x100>
    3d48:	00000793          	li	a5,0
    3d4c:	fadff06f          	j	3cf8 <__truncdfsf2+0x120>

00003d50 <__mulsi3>:
    3d50:	00050613          	mv	a2,a0
    3d54:	00000513          	li	a0,0
    3d58:	0015f693          	and	a3,a1,1
    3d5c:	00068463          	beqz	a3,3d64 <__mulsi3+0x14>
    3d60:	00c50533          	add	a0,a0,a2
    3d64:	0015d593          	srl	a1,a1,0x1
    3d68:	00161613          	sll	a2,a2,0x1
    3d6c:	fe0596e3          	bnez	a1,3d58 <__mulsi3+0x8>
    3d70:	00008067          	ret

00003d74 <__divsi3>:
    3d74:	06054063          	bltz	a0,3dd4 <__umodsi3+0x10>
    3d78:	0605c663          	bltz	a1,3de4 <__umodsi3+0x20>

00003d7c <__hidden___udivsi3>:
    3d7c:	00058613          	mv	a2,a1
    3d80:	00050593          	mv	a1,a0
    3d84:	fff00513          	li	a0,-1
    3d88:	02060c63          	beqz	a2,3dc0 <__hidden___udivsi3+0x44>
    3d8c:	00100693          	li	a3,1
    3d90:	00b67a63          	bgeu	a2,a1,3da4 <__hidden___udivsi3+0x28>
    3d94:	00c05863          	blez	a2,3da4 <__hidden___udivsi3+0x28>
    3d98:	00161613          	sll	a2,a2,0x1
    3d9c:	00169693          	sll	a3,a3,0x1
    3da0:	feb66ae3          	bltu	a2,a1,3d94 <__hidden___udivsi3+0x18>
    3da4:	00000513          	li	a0,0
    3da8:	00c5e663          	bltu	a1,a2,3db4 <__hidden___udivsi3+0x38>
    3dac:	40c585b3          	sub	a1,a1,a2
    3db0:	00d56533          	or	a0,a0,a3
    3db4:	0016d693          	srl	a3,a3,0x1
    3db8:	00165613          	srl	a2,a2,0x1
    3dbc:	fe0696e3          	bnez	a3,3da8 <__hidden___udivsi3+0x2c>
    3dc0:	00008067          	ret

00003dc4 <__umodsi3>:
    3dc4:	00008293          	mv	t0,ra
    3dc8:	fb5ff0ef          	jal	3d7c <__hidden___udivsi3>
    3dcc:	00058513          	mv	a0,a1
    3dd0:	00028067          	jr	t0
    3dd4:	40a00533          	neg	a0,a0
    3dd8:	00b04863          	bgtz	a1,3de8 <__umodsi3+0x24>
    3ddc:	40b005b3          	neg	a1,a1
    3de0:	f9dff06f          	j	3d7c <__hidden___udivsi3>
    3de4:	40b005b3          	neg	a1,a1
    3de8:	00008293          	mv	t0,ra
    3dec:	f91ff0ef          	jal	3d7c <__hidden___udivsi3>
    3df0:	40a00533          	neg	a0,a0
    3df4:	00028067          	jr	t0

00003df8 <__modsi3>:
    3df8:	00008293          	mv	t0,ra
    3dfc:	0005ca63          	bltz	a1,3e10 <__modsi3+0x18>
    3e00:	00054c63          	bltz	a0,3e18 <__modsi3+0x20>
    3e04:	f79ff0ef          	jal	3d7c <__hidden___udivsi3>
    3e08:	00058513          	mv	a0,a1
    3e0c:	00028067          	jr	t0
    3e10:	40b005b3          	neg	a1,a1
    3e14:	fe0558e3          	bgez	a0,3e04 <__modsi3+0xc>
    3e18:	40a00533          	neg	a0,a0
    3e1c:	f61ff0ef          	jal	3d7c <__hidden___udivsi3>
    3e20:	40b00533          	neg	a0,a1
    3e24:	00028067          	jr	t0

00003e28 <__clzsi2>:
    3e28:	000107b7          	lui	a5,0x10
    3e2c:	02f57a63          	bgeu	a0,a5,3e60 <__clzsi2+0x38>
    3e30:	10053793          	sltiu	a5,a0,256
    3e34:	0017b793          	seqz	a5,a5
    3e38:	00379793          	sll	a5,a5,0x3
    3e3c:	00004737          	lui	a4,0x4
    3e40:	02000693          	li	a3,32
    3e44:	40f686b3          	sub	a3,a3,a5
    3e48:	00f55533          	srl	a0,a0,a5
    3e4c:	53470793          	add	a5,a4,1332 # 4534 <__clz_tab>
    3e50:	00a787b3          	add	a5,a5,a0
    3e54:	0007c503          	lbu	a0,0(a5) # 10000 <__heap_start+0xb000>
    3e58:	40a68533          	sub	a0,a3,a0
    3e5c:	00008067          	ret
    3e60:	01000737          	lui	a4,0x1000
    3e64:	01800793          	li	a5,24
    3e68:	fce57ae3          	bgeu	a0,a4,3e3c <__clzsi2+0x14>
    3e6c:	01000793          	li	a5,16
    3e70:	fcdff06f          	j	3e3c <__clzsi2+0x14>

Disassembly of section .text.startup:

00003e74 <main>:
    3e74:	fa010113          	add	sp,sp,-96
    3e78:	000047b7          	lui	a5,0x4
    3e7c:	03912a23          	sw	s9,52(sp)
    3e80:	6587ac83          	lw	s9,1624(a5) # 4658 <__clz_tab+0x124>
    3e84:	000047b7          	lui	a5,0x4
    3e88:	6607a783          	lw	a5,1632(a5) # 4660 <__clz_tab+0x12c>
    3e8c:	03a12823          	sw	s10,48(sp)
    3e90:	03b12623          	sw	s11,44(sp)
    3e94:	00f12a23          	sw	a5,20(sp)
    3e98:	000047b7          	lui	a5,0x4
    3e9c:	6707ad03          	lw	s10,1648(a5) # 4670 <__clz_tab+0x13c>
    3ea0:	6747ad83          	lw	s11,1652(a5)
    3ea4:	000047b7          	lui	a5,0x4
    3ea8:	6647a783          	lw	a5,1636(a5) # 4664 <__clz_tab+0x130>
    3eac:	04812c23          	sw	s0,88(sp)
    3eb0:	04912a23          	sw	s1,84(sp)
    3eb4:	04112e23          	sw	ra,92(sp)
    3eb8:	05212823          	sw	s2,80(sp)
    3ebc:	05312623          	sw	s3,76(sp)
    3ec0:	05412423          	sw	s4,72(sp)
    3ec4:	05512223          	sw	s5,68(sp)
    3ec8:	05612023          	sw	s6,64(sp)
    3ecc:	03712e23          	sw	s7,60(sp)
    3ed0:	03812c23          	sw	s8,56(sp)
    3ed4:	00f12c23          	sw	a5,24(sp)
    3ed8:	03d00413          	li	s0,61
    3edc:	000c8493          	mv	s1,s9
    3ee0:	00048593          	mv	a1,s1
    3ee4:	00048513          	mv	a0,s1
    3ee8:	c28ff0ef          	jal	3310 <__mulsf3>
    3eec:	00050b13          	mv	s6,a0
    3ef0:	00000593          	li	a1,0
    3ef4:	00048513          	mv	a0,s1
    3ef8:	c18ff0ef          	jal	3310 <__mulsf3>
    3efc:	00048593          	mv	a1,s1
    3f00:	c10ff0ef          	jal	3310 <__mulsf3>
    3f04:	00048593          	mv	a1,s1
    3f08:	c08ff0ef          	jal	3310 <__mulsf3>
    3f0c:	000047b7          	lui	a5,0x4
    3f10:	6547ac83          	lw	s9,1620(a5) # 4654 <__clz_tab+0x120>
    3f14:	07900c13          	li	s8,121
    3f18:	00a12023          	sw	a0,0(sp)
    3f1c:	000c8913          	mv	s2,s9
    3f20:	00812e23          	sw	s0,28(sp)
    3f24:	000c0c93          	mv	s9,s8
    3f28:	000b0c13          	mv	s8,s6
    3f2c:	02c0006f          	j	3f58 <main+0xe4>
    3f30:	000307b7          	lui	a5,0x30
    3f34:	05f00713          	li	a4,95
    3f38:	00e78023          	sb	a4,0(a5) # 30000 <__heap_start+0x2b000>
    3f3c:	000047b7          	lui	a5,0x4
    3f40:	6687a583          	lw	a1,1640(a5) # 4668 <__clz_tab+0x134>
    3f44:	00090513          	mv	a0,s2
    3f48:	fffc8c93          	add	s9,s9,-1
    3f4c:	a61fe0ef          	jal	29ac <__addsf3>
    3f50:	00050913          	mv	s2,a0
    3f54:	4e0c8e63          	beqz	s9,4450 <main+0x5dc>
    3f58:	00090593          	mv	a1,s2
    3f5c:	00090513          	mv	a0,s2
    3f60:	bb0ff0ef          	jal	3310 <__mulsf3>
    3f64:	00000593          	li	a1,0
    3f68:	00050993          	mv	s3,a0
    3f6c:	a41fe0ef          	jal	29ac <__addsf3>
    3f70:	000c0593          	mv	a1,s8
    3f74:	a39fe0ef          	jal	29ac <__addsf3>
    3f78:	000047b7          	lui	a5,0x4
    3f7c:	6447a583          	lw	a1,1604(a5) # 4644 <__clz_tab+0x110>
    3f80:	edcff0ef          	jal	365c <__subsf3>
    3f84:	00050413          	mv	s0,a0
    3f88:	00048593          	mv	a1,s1
    3f8c:	00098513          	mv	a0,s3
    3f90:	b80ff0ef          	jal	3310 <__mulsf3>
    3f94:	00048593          	mv	a1,s1
    3f98:	b78ff0ef          	jal	3310 <__mulsf3>
    3f9c:	00048593          	mv	a1,s1
    3fa0:	b70ff0ef          	jal	3310 <__mulsf3>
    3fa4:	00050a93          	mv	s5,a0
    3fa8:	00040593          	mv	a1,s0
    3fac:	00040513          	mv	a0,s0
    3fb0:	b60ff0ef          	jal	3310 <__mulsf3>
    3fb4:	00040593          	mv	a1,s0
    3fb8:	b58ff0ef          	jal	3310 <__mulsf3>
    3fbc:	000a8593          	mv	a1,s5
    3fc0:	e9cff0ef          	jal	365c <__subsf3>
    3fc4:	00012583          	lw	a1,0(sp)
    3fc8:	e94ff0ef          	jal	365c <__subsf3>
    3fcc:	00000593          	li	a1,0
    3fd0:	a94ff0ef          	jal	3264 <__lesf2>
    3fd4:	f4a04ee3          	bgtz	a0,3f30 <main+0xbc>
    3fd8:	000047b7          	lui	a5,0x4
    3fdc:	6447a403          	lw	s0,1604(a5) # 4644 <__clz_tab+0x110>
    3fe0:	0180006f          	j	3ff8 <main+0x184>
    3fe4:	e78ff0ef          	jal	365c <__subsf3>
    3fe8:	00000593          	li	a1,0
    3fec:	00050413          	mv	s0,a0
    3ff0:	9c8ff0ef          	jal	31b8 <__gesf2>
    3ff4:	42054a63          	bltz	a0,4428 <main+0x5b4>
    3ff8:	000047b7          	lui	a5,0x4
    3ffc:	6407a583          	lw	a1,1600(a5) # 4640 <__clz_tab+0x10c>
    4000:	00040513          	mv	a0,s0
    4004:	b0cff0ef          	jal	3310 <__mulsf3>
    4008:	00040593          	mv	a1,s0
    400c:	b04ff0ef          	jal	3310 <__mulsf3>
    4010:	00098593          	mv	a1,s3
    4014:	999fe0ef          	jal	29ac <__addsf3>
    4018:	000c0593          	mv	a1,s8
    401c:	991fe0ef          	jal	29ac <__addsf3>
    4020:	000047b7          	lui	a5,0x4
    4024:	6447a583          	lw	a1,1604(a5) # 4644 <__clz_tab+0x110>
    4028:	e34ff0ef          	jal	365c <__subsf3>
    402c:	00050593          	mv	a1,a0
    4030:	00050a13          	mv	s4,a0
    4034:	adcff0ef          	jal	3310 <__mulsf3>
    4038:	000a0593          	mv	a1,s4
    403c:	ad4ff0ef          	jal	3310 <__mulsf3>
    4040:	000a8593          	mv	a1,s5
    4044:	e18ff0ef          	jal	365c <__subsf3>
    4048:	000047b7          	lui	a5,0x4
    404c:	6487a583          	lw	a1,1608(a5) # 4648 <__clz_tab+0x114>
    4050:	00050a13          	mv	s4,a0
    4054:	00040513          	mv	a0,s0
    4058:	ab8ff0ef          	jal	3310 <__mulsf3>
    405c:	00040593          	mv	a1,s0
    4060:	ab0ff0ef          	jal	3310 <__mulsf3>
    4064:	00048593          	mv	a1,s1
    4068:	aa8ff0ef          	jal	3310 <__mulsf3>
    406c:	00048593          	mv	a1,s1
    4070:	aa0ff0ef          	jal	3310 <__mulsf3>
    4074:	00048593          	mv	a1,s1
    4078:	a98ff0ef          	jal	3310 <__mulsf3>
    407c:	00050593          	mv	a1,a0
    4080:	000a0513          	mv	a0,s4
    4084:	dd8ff0ef          	jal	365c <__subsf3>
    4088:	00000593          	li	a1,0
    408c:	9d8ff0ef          	jal	3264 <__lesf2>
    4090:	00050793          	mv	a5,a0
    4094:	00004737          	lui	a4,0x4
    4098:	64c72583          	lw	a1,1612(a4) # 464c <__clz_tab+0x118>
    409c:	00040513          	mv	a0,s0
    40a0:	f4f042e3          	bgtz	a5,3fe4 <main+0x170>
    40a4:	000047b7          	lui	a5,0x4
    40a8:	65c7a583          	lw	a1,1628(a5) # 465c <__clz_tab+0x128>
    40ac:	00090513          	mv	a0,s2
    40b0:	8fdfe0ef          	jal	29ac <__addsf3>
    40b4:	00050593          	mv	a1,a0
    40b8:	a58ff0ef          	jal	3310 <__mulsf3>
    40bc:	00050593          	mv	a1,a0
    40c0:	00050a93          	mv	s5,a0
    40c4:	00048513          	mv	a0,s1
    40c8:	a48ff0ef          	jal	3310 <__mulsf3>
    40cc:	00048593          	mv	a1,s1
    40d0:	a40ff0ef          	jal	3310 <__mulsf3>
    40d4:	00048593          	mv	a1,s1
    40d8:	a38ff0ef          	jal	3310 <__mulsf3>
    40dc:	000047b7          	lui	a5,0x4
    40e0:	6447ab83          	lw	s7,1604(a5) # 4644 <__clz_tab+0x110>
    40e4:	00050b13          	mv	s6,a0
    40e8:	0180006f          	j	4100 <main+0x28c>
    40ec:	d70ff0ef          	jal	365c <__subsf3>
    40f0:	00000593          	li	a1,0
    40f4:	00050b93          	mv	s7,a0
    40f8:	8c0ff0ef          	jal	31b8 <__gesf2>
    40fc:	32054a63          	bltz	a0,4430 <main+0x5bc>
    4100:	000047b7          	lui	a5,0x4
    4104:	6407a583          	lw	a1,1600(a5) # 4640 <__clz_tab+0x10c>
    4108:	000b8513          	mv	a0,s7
    410c:	a04ff0ef          	jal	3310 <__mulsf3>
    4110:	000b8593          	mv	a1,s7
    4114:	9fcff0ef          	jal	3310 <__mulsf3>
    4118:	000a8593          	mv	a1,s5
    411c:	891fe0ef          	jal	29ac <__addsf3>
    4120:	000c0593          	mv	a1,s8
    4124:	889fe0ef          	jal	29ac <__addsf3>
    4128:	000047b7          	lui	a5,0x4
    412c:	6447a583          	lw	a1,1604(a5) # 4644 <__clz_tab+0x110>
    4130:	d2cff0ef          	jal	365c <__subsf3>
    4134:	00050593          	mv	a1,a0
    4138:	00050a13          	mv	s4,a0
    413c:	9d4ff0ef          	jal	3310 <__mulsf3>
    4140:	000a0593          	mv	a1,s4
    4144:	9ccff0ef          	jal	3310 <__mulsf3>
    4148:	000b0593          	mv	a1,s6
    414c:	d10ff0ef          	jal	365c <__subsf3>
    4150:	000047b7          	lui	a5,0x4
    4154:	6487a583          	lw	a1,1608(a5) # 4648 <__clz_tab+0x114>
    4158:	00050a13          	mv	s4,a0
    415c:	000b8513          	mv	a0,s7
    4160:	9b0ff0ef          	jal	3310 <__mulsf3>
    4164:	000b8593          	mv	a1,s7
    4168:	9a8ff0ef          	jal	3310 <__mulsf3>
    416c:	00048593          	mv	a1,s1
    4170:	9a0ff0ef          	jal	3310 <__mulsf3>
    4174:	00048593          	mv	a1,s1
    4178:	998ff0ef          	jal	3310 <__mulsf3>
    417c:	00048593          	mv	a1,s1
    4180:	990ff0ef          	jal	3310 <__mulsf3>
    4184:	00050593          	mv	a1,a0
    4188:	000a0513          	mv	a0,s4
    418c:	cd0ff0ef          	jal	365c <__subsf3>
    4190:	00000593          	li	a1,0
    4194:	8d0ff0ef          	jal	3264 <__lesf2>
    4198:	00050793          	mv	a5,a0
    419c:	00004737          	lui	a4,0x4
    41a0:	64c72583          	lw	a1,1612(a4) # 464c <__clz_tab+0x118>
    41a4:	000b8513          	mv	a0,s7
    41a8:	f4f042e3          	bgtz	a5,40ec <main+0x278>
    41ac:	00040593          	mv	a1,s0
    41b0:	000b8513          	mv	a0,s7
    41b4:	ca8ff0ef          	jal	365c <__subsf3>
    41b8:	00004737          	lui	a4,0x4
    41bc:	65c72583          	lw	a1,1628(a4) # 465c <__clz_tab+0x128>
    41c0:	00050793          	mv	a5,a0
    41c4:	00048513          	mv	a0,s1
    41c8:	00f12223          	sw	a5,4(sp)
    41cc:	fe0fe0ef          	jal	29ac <__addsf3>
    41d0:	00050593          	mv	a1,a0
    41d4:	00050a13          	mv	s4,a0
    41d8:	938ff0ef          	jal	3310 <__mulsf3>
    41dc:	00050b13          	mv	s6,a0
    41e0:	00098593          	mv	a1,s3
    41e4:	000a0513          	mv	a0,s4
    41e8:	928ff0ef          	jal	3310 <__mulsf3>
    41ec:	000a0593          	mv	a1,s4
    41f0:	920ff0ef          	jal	3310 <__mulsf3>
    41f4:	000a0593          	mv	a1,s4
    41f8:	918ff0ef          	jal	3310 <__mulsf3>
    41fc:	000047b7          	lui	a5,0x4
    4200:	6447aa83          	lw	s5,1604(a5) # 4644 <__clz_tab+0x110>
    4204:	01912823          	sw	s9,16(sp)
    4208:	01b12623          	sw	s11,12(sp)
    420c:	00040c93          	mv	s9,s0
    4210:	000a8b93          	mv	s7,s5
    4214:	000b0413          	mv	s0,s6
    4218:	01a12423          	sw	s10,8(sp)
    421c:	00098b13          	mv	s6,s3
    4220:	00050d93          	mv	s11,a0
    4224:	0180006f          	j	423c <main+0x3c8>
    4228:	c34ff0ef          	jal	365c <__subsf3>
    422c:	00000593          	li	a1,0
    4230:	00050a93          	mv	s5,a0
    4234:	f85fe0ef          	jal	31b8 <__gesf2>
    4238:	20054063          	bltz	a0,4438 <main+0x5c4>
    423c:	000047b7          	lui	a5,0x4
    4240:	6407a583          	lw	a1,1600(a5) # 4640 <__clz_tab+0x10c>
    4244:	000a8513          	mv	a0,s5
    4248:	8c8ff0ef          	jal	3310 <__mulsf3>
    424c:	000a8593          	mv	a1,s5
    4250:	8c0ff0ef          	jal	3310 <__mulsf3>
    4254:	000b0593          	mv	a1,s6
    4258:	f54fe0ef          	jal	29ac <__addsf3>
    425c:	00040593          	mv	a1,s0
    4260:	f4cfe0ef          	jal	29ac <__addsf3>
    4264:	000b8593          	mv	a1,s7
    4268:	bf4ff0ef          	jal	365c <__subsf3>
    426c:	00050593          	mv	a1,a0
    4270:	00050993          	mv	s3,a0
    4274:	89cff0ef          	jal	3310 <__mulsf3>
    4278:	00098593          	mv	a1,s3
    427c:	894ff0ef          	jal	3310 <__mulsf3>
    4280:	000d8593          	mv	a1,s11
    4284:	bd8ff0ef          	jal	365c <__subsf3>
    4288:	000047b7          	lui	a5,0x4
    428c:	6487a583          	lw	a1,1608(a5) # 4648 <__clz_tab+0x114>
    4290:	00050993          	mv	s3,a0
    4294:	000a8513          	mv	a0,s5
    4298:	878ff0ef          	jal	3310 <__mulsf3>
    429c:	000a8593          	mv	a1,s5
    42a0:	870ff0ef          	jal	3310 <__mulsf3>
    42a4:	000a0593          	mv	a1,s4
    42a8:	868ff0ef          	jal	3310 <__mulsf3>
    42ac:	000a0593          	mv	a1,s4
    42b0:	860ff0ef          	jal	3310 <__mulsf3>
    42b4:	000a0593          	mv	a1,s4
    42b8:	858ff0ef          	jal	3310 <__mulsf3>
    42bc:	00050593          	mv	a1,a0
    42c0:	00098513          	mv	a0,s3
    42c4:	b98ff0ef          	jal	365c <__subsf3>
    42c8:	00000593          	li	a1,0
    42cc:	f99fe0ef          	jal	3264 <__lesf2>
    42d0:	00050793          	mv	a5,a0
    42d4:	00004737          	lui	a4,0x4
    42d8:	64c72583          	lw	a1,1612(a4) # 464c <__clz_tab+0x118>
    42dc:	000a8513          	mv	a0,s5
    42e0:	f4f044e3          	bgtz	a5,4228 <main+0x3b4>
    42e4:	000c8413          	mv	s0,s9
    42e8:	00812d03          	lw	s10,8(sp)
    42ec:	01012c83          	lw	s9,16(sp)
    42f0:	00c12d83          	lw	s11,12(sp)
    42f4:	00040593          	mv	a1,s0
    42f8:	000a8513          	mv	a0,s5
    42fc:	b60ff0ef          	jal	365c <__subsf3>
    4300:	00412583          	lw	a1,4(sp)
    4304:	00050a93          	mv	s5,a0
    4308:	03200b13          	li	s6,50
    430c:	00058513          	mv	a0,a1
    4310:	800ff0ef          	jal	3310 <__mulsf3>
    4314:	01412583          	lw	a1,20(sp)
    4318:	e94fe0ef          	jal	29ac <__addsf3>
    431c:	00050413          	mv	s0,a0
    4320:	000a8593          	mv	a1,s5
    4324:	000a8513          	mv	a0,s5
    4328:	fe9fe0ef          	jal	3310 <__mulsf3>
    432c:	00050593          	mv	a1,a0
    4330:	00040513          	mv	a0,s0
    4334:	e78fe0ef          	jal	29ac <__addsf3>
    4338:	000047b7          	lui	a5,0x4
    433c:	6507a583          	lw	a1,1616(a5) # 4650 <__clz_tab+0x11c>
    4340:	00050993          	mv	s3,a0
    4344:	fcdfe0ef          	jal	3310 <__mulsf3>
    4348:	fb4ff0ef          	jal	3afc <__extendsfdf2>
    434c:	00050b93          	mv	s7,a0
    4350:	00098513          	mv	a0,s3
    4354:	00058413          	mv	s0,a1
    4358:	fa4ff0ef          	jal	3afc <__extendsfdf2>
    435c:	00050a13          	mv	s4,a0
    4360:	00058993          	mv	s3,a1
    4364:	000b8613          	mv	a2,s7
    4368:	00040693          	mv	a3,s0
    436c:	000a0513          	mv	a0,s4
    4370:	00098593          	mv	a1,s3
    4374:	fa8fd0ef          	jal	1b1c <__divdf3>
    4378:	000b8613          	mv	a2,s7
    437c:	00040693          	mv	a3,s0
    4380:	808fd0ef          	jal	1388 <__adddf3>
    4384:	000d0613          	mv	a2,s10
    4388:	000d8693          	mv	a3,s11
    438c:	f71fd0ef          	jal	22fc <__muldf3>
    4390:	fffb0b13          	add	s6,s6,-1
    4394:	00050b93          	mv	s7,a0
    4398:	00058413          	mv	s0,a1
    439c:	fc0b14e3          	bnez	s6,4364 <main+0x4f0>
    43a0:	000047b7          	lui	a5,0x4
    43a4:	65c7a583          	lw	a1,1628(a5) # 465c <__clz_tab+0x128>
    43a8:	00412503          	lw	a0,4(sp)
    43ac:	000049b7          	lui	s3,0x4
    43b0:	63498993          	add	s3,s3,1588 # 4634 <__clz_tab+0x100>
    43b4:	df8fe0ef          	jal	29ac <__addsf3>
    43b8:	000a8593          	mv	a1,s5
    43bc:	aa0ff0ef          	jal	365c <__subsf3>
    43c0:	00050793          	mv	a5,a0
    43c4:	00040593          	mv	a1,s0
    43c8:	000b8513          	mv	a0,s7
    43cc:	00078413          	mv	s0,a5
    43d0:	809ff0ef          	jal	3bd8 <__truncdfsf2>
    43d4:	000047b7          	lui	a5,0x4
    43d8:	00050593          	mv	a1,a0
    43dc:	6447a503          	lw	a0,1604(a5) # 4644 <__clz_tab+0x110>
    43e0:	9edfe0ef          	jal	2dcc <__divsf3>
    43e4:	00050593          	mv	a1,a0
    43e8:	00040513          	mv	a0,s0
    43ec:	f25fe0ef          	jal	3310 <__mulsf3>
    43f0:	000047b7          	lui	a5,0x4
    43f4:	6507a583          	lw	a1,1616(a5) # 4650 <__clz_tab+0x11c>
    43f8:	00078413          	mv	s0,a5
    43fc:	f15fe0ef          	jal	3310 <__mulsf3>
    4400:	65042583          	lw	a1,1616(s0)
    4404:	da8fe0ef          	jal	29ac <__addsf3>
    4408:	01812583          	lw	a1,24(sp)
    440c:	f05fe0ef          	jal	3310 <__mulsf3>
    4410:	e7cff0ef          	jal	3a8c <__fixsfsi>
    4414:	00a989b3          	add	s3,s3,a0
    4418:	0009c703          	lbu	a4,0(s3)
    441c:	000307b7          	lui	a5,0x30
    4420:	00e78023          	sb	a4,0(a5) # 30000 <__heap_start+0x2b000>
    4424:	b19ff06f          	j	3f3c <main+0xc8>
    4428:	00000413          	li	s0,0
    442c:	c79ff06f          	j	40a4 <main+0x230>
    4430:	00000b93          	li	s7,0
    4434:	d79ff06f          	j	41ac <main+0x338>
    4438:	000c8413          	mv	s0,s9
    443c:	00812d03          	lw	s10,8(sp)
    4440:	01012c83          	lw	s9,16(sp)
    4444:	00c12d83          	lw	s11,12(sp)
    4448:	00000a93          	li	s5,0
    444c:	ea9ff06f          	j	42f4 <main+0x480>
    4450:	000047b7          	lui	a5,0x4
    4454:	01c12403          	lw	s0,28(sp)
    4458:	66c7a583          	lw	a1,1644(a5) # 466c <__clz_tab+0x138>
    445c:	00a00713          	li	a4,10
    4460:	000307b7          	lui	a5,0x30
    4464:	00048513          	mv	a0,s1
    4468:	00e78023          	sb	a4,0(a5) # 30000 <__heap_start+0x2b000>
    446c:	9f0ff0ef          	jal	365c <__subsf3>
    4470:	fff40413          	add	s0,s0,-1
    4474:	00050493          	mv	s1,a0
    4478:	a60414e3          	bnez	s0,3ee0 <main+0x6c>
    447c:	05c12083          	lw	ra,92(sp)
    4480:	05812403          	lw	s0,88(sp)
    4484:	05412483          	lw	s1,84(sp)
    4488:	05012903          	lw	s2,80(sp)
    448c:	04c12983          	lw	s3,76(sp)
    4490:	04812a03          	lw	s4,72(sp)
    4494:	04412a83          	lw	s5,68(sp)
    4498:	04012b03          	lw	s6,64(sp)
    449c:	03c12b83          	lw	s7,60(sp)
    44a0:	03812c03          	lw	s8,56(sp)
    44a4:	03412c83          	lw	s9,52(sp)
    44a8:	03012d03          	lw	s10,48(sp)
    44ac:	02c12d83          	lw	s11,44(sp)
    44b0:	00000513          	li	a0,0
    44b4:	06010113          	add	sp,sp,96
    44b8:	00008067          	ret

Disassembly of section .srodata.cst4:

00004640 <.srodata.cst4>:
    4640:	0000                	.insn	2, 0x
    4642:	4010                	.insn	2, 0x4010
    4644:	0000                	.insn	2, 0x
    4646:	3f80                	.insn	2, 0x3f80
    4648:	6666                	.insn	2, 0x6666
    464a:	3de6                	.insn	2, 0x3de6
    464c:	3a83126f          	jal	tp,359f4 <__heap_start+0x309f4>
    4650:	0000                	.insn	2, 0x
    4652:	3f00                	.insn	2, 0x3f00
    4654:	0000                	.insn	2, 0x
    4656:	bfc0                	.insn	2, 0xbfc0
    4658:	0000                	.insn	2, 0x
    465a:	3fc0                	.insn	2, 0x3fc0
    465c:	d70a                	.insn	2, 0xd70a
    465e:	b7173c23          	.insn	4, 0xb7173c23
    4662:	38d1                	.insn	2, 0x38d1
    4664:	0000                	.insn	2, 0x
    4666:	40a0                	.insn	2, 0x40a0
    4668:	cccd                	.insn	2, 0xcccd
    466a:	3ccc                	.insn	2, 0x3ccc
    466c:	cccd                	.insn	2, 0xcccd
    466e:	3d4c                	.insn	2, 0x3d4c

Disassembly of section .srodata.cst8:

00004670 <__bss_end-0x8>:
    4670:	0000                	.insn	2, 0x
    4672:	0000                	.insn	2, 0x
    4674:	0000                	.insn	2, 0x
    4676:	3fe0                	.insn	2, 0x3fe0
