
/home/zsq259/Desktop/1/RISC-V-CPU/riscv/testcase/fpga/iotest.om:     file format elf32-littleriscv


Disassembly of section .rom:

00000000 <.rom>:
   0:	00020137          	lui	sp,0x20
   4:	7fd000ef          	jal	1000 <main>
   8:	0ff00513          	li	a0,255
   c:	000306b7          	lui	a3,0x30
  10:	00a68223          	sb	a0,4(a3) # 30004 <__heap_start+0x2e004>
  14:	ff9ff06f          	j	c <main-0xff4>

Disassembly of section .text.startup:

00001000 <main>:
    1000:	000307b7          	lui	a5,0x30
    1004:	0007c703          	lbu	a4,0(a5) # 30000 <__heap_start+0x2e000>
    1008:	00000513          	li	a0,0
    100c:	0ff77713          	zext.b	a4,a4
    1010:	00e78023          	sb	a4,0(a5)
    1014:	0007c703          	lbu	a4,0(a5)
    1018:	0ff77713          	zext.b	a4,a4
    101c:	00e78023          	sb	a4,0(a5)
    1020:	0007c703          	lbu	a4,0(a5)
    1024:	0ff77713          	zext.b	a4,a4
    1028:	00e78023          	sb	a4,0(a5)
    102c:	0007c703          	lbu	a4,0(a5)
    1030:	0ff77713          	zext.b	a4,a4
    1034:	00e78023          	sb	a4,0(a5)
    1038:	0007c703          	lbu	a4,0(a5)
    103c:	0ff77713          	zext.b	a4,a4
    1040:	00e78023          	sb	a4,0(a5)
    1044:	0007c703          	lbu	a4,0(a5)
    1048:	0ff77713          	zext.b	a4,a4
    104c:	00e78023          	sb	a4,0(a5)
    1050:	0007c703          	lbu	a4,0(a5)
    1054:	0ff77713          	zext.b	a4,a4
    1058:	00e78023          	sb	a4,0(a5)
    105c:	0007c703          	lbu	a4,0(a5)
    1060:	0ff77713          	zext.b	a4,a4
    1064:	00e78023          	sb	a4,0(a5)
    1068:	00008067          	ret
