
/home/zsq259/Desktop/1/RISC-V-CPU/riscv/testcase/fpga/manyarguments.om:     file format elf32-littleriscv


Disassembly of section .rom:

00000000 <.rom>:
   0:	00020137          	lui	sp,0x20
   4:	054010ef          	jal	1058 <main>
   8:	0ff00513          	li	a0,255
   c:	000306b7          	lui	a3,0x30
  10:	00a68223          	sb	a0,4(a3) # 30004 <__heap_start+0x2e004>
  14:	ff9ff06f          	j	c <a-0xff4>

Disassembly of section .text:

00001000 <a>:
    1000:	00b50533          	add	a0,a0,a1
    1004:	00c50533          	add	a0,a0,a2
    1008:	00d50533          	add	a0,a0,a3
    100c:	00e50533          	add	a0,a0,a4
    1010:	00f50533          	add	a0,a0,a5
    1014:	00012783          	lw	a5,0(sp) # 20000 <__heap_start+0x1e000>
    1018:	00412703          	lw	a4,4(sp)
    101c:	01050533          	add	a0,a0,a6
    1020:	01150533          	add	a0,a0,a7
    1024:	00f507b3          	add	a5,a0,a5
    1028:	00e787b3          	add	a5,a5,a4
    102c:	00812703          	lw	a4,8(sp)
    1030:	01812503          	lw	a0,24(sp)
    1034:	00e787b3          	add	a5,a5,a4
    1038:	00c12703          	lw	a4,12(sp)
    103c:	00e787b3          	add	a5,a5,a4
    1040:	01012703          	lw	a4,16(sp)
    1044:	00e787b3          	add	a5,a5,a4
    1048:	01412703          	lw	a4,20(sp)
    104c:	00e787b3          	add	a5,a5,a4
    1050:	00a78533          	add	a0,a5,a0
    1054:	00008067          	ret

Disassembly of section .text.startup:

00001058 <main>:
    1058:	000037b7          	lui	a5,0x3
    105c:	ff010113          	add	sp,sp,-16
    1060:	23078793          	add	a5,a5,560 # 3230 <__heap_start+0x1230>
    1064:	00f11223          	sh	a5,4(sp)
    1068:	03100793          	li	a5,49
    106c:	00f10323          	sb	a5,6(sp)
    1070:	00110613          	add	a2,sp,1
    1074:	00410793          	add	a5,sp,4
    1078:	000306b7          	lui	a3,0x30
    107c:	0027c703          	lbu	a4,2(a5)
    1080:	fff78793          	add	a5,a5,-1
    1084:	00e68023          	sb	a4,0(a3) # 30000 <__heap_start+0x2e000>
    1088:	fec79ae3          	bne	a5,a2,107c <main+0x24>
    108c:	00a00793          	li	a5,10
    1090:	00f68023          	sb	a5,0(a3)
    1094:	00000513          	li	a0,0
    1098:	01010113          	add	sp,sp,16
    109c:	00008067          	ret
