
/home/zsq259/Desktop/1/RISC-V-CPU/riscv/testcase/fpga/pi.om:     file format elf32-littleriscv


Disassembly of section .rom:

00000000 <.rom>:
   0:	00020137          	lui	sp,0x20
   4:	0d4010ef          	jal	10d8 <main>
   8:	0ff00513          	li	a0,255
   c:	000306b7          	lui	a3,0x30
  10:	00a68223          	sb	a0,4(a3) # 30004 <__heap_start+0x2c004>
  14:	ff9ff06f          	j	c <__mulsi3-0xff4>

Disassembly of section .text:

00001000 <__mulsi3>:
    1000:	00050613          	mv	a2,a0
    1004:	00000513          	li	a0,0
    1008:	0015f693          	and	a3,a1,1
    100c:	00068463          	beqz	a3,1014 <__mulsi3+0x14>
    1010:	00c50533          	add	a0,a0,a2
    1014:	0015d593          	srl	a1,a1,0x1
    1018:	00161613          	sll	a2,a2,0x1
    101c:	fe0596e3          	bnez	a1,1008 <__mulsi3+0x8>
    1020:	00008067          	ret

00001024 <__divsi3>:
    1024:	06054063          	bltz	a0,1084 <__umodsi3+0x10>
    1028:	0605c663          	bltz	a1,1094 <__umodsi3+0x20>

0000102c <__hidden___udivsi3>:
    102c:	00058613          	mv	a2,a1
    1030:	00050593          	mv	a1,a0
    1034:	fff00513          	li	a0,-1
    1038:	02060c63          	beqz	a2,1070 <__hidden___udivsi3+0x44>
    103c:	00100693          	li	a3,1
    1040:	00b67a63          	bgeu	a2,a1,1054 <__hidden___udivsi3+0x28>
    1044:	00c05863          	blez	a2,1054 <__hidden___udivsi3+0x28>
    1048:	00161613          	sll	a2,a2,0x1
    104c:	00169693          	sll	a3,a3,0x1
    1050:	feb66ae3          	bltu	a2,a1,1044 <__hidden___udivsi3+0x18>
    1054:	00000513          	li	a0,0
    1058:	00c5e663          	bltu	a1,a2,1064 <__hidden___udivsi3+0x38>
    105c:	40c585b3          	sub	a1,a1,a2
    1060:	00d56533          	or	a0,a0,a3
    1064:	0016d693          	srl	a3,a3,0x1
    1068:	00165613          	srl	a2,a2,0x1
    106c:	fe0696e3          	bnez	a3,1058 <__hidden___udivsi3+0x2c>
    1070:	00008067          	ret

00001074 <__umodsi3>:
    1074:	00008293          	mv	t0,ra
    1078:	fb5ff0ef          	jal	102c <__hidden___udivsi3>
    107c:	00058513          	mv	a0,a1
    1080:	00028067          	jr	t0
    1084:	40a00533          	neg	a0,a0
    1088:	00b04863          	bgtz	a1,1098 <__umodsi3+0x24>
    108c:	40b005b3          	neg	a1,a1
    1090:	f9dff06f          	j	102c <__hidden___udivsi3>
    1094:	40b005b3          	neg	a1,a1
    1098:	00008293          	mv	t0,ra
    109c:	f91ff0ef          	jal	102c <__hidden___udivsi3>
    10a0:	40a00533          	neg	a0,a0
    10a4:	00028067          	jr	t0

000010a8 <__modsi3>:
    10a8:	00008293          	mv	t0,ra
    10ac:	0005ca63          	bltz	a1,10c0 <__modsi3+0x18>
    10b0:	00054c63          	bltz	a0,10c8 <__modsi3+0x20>
    10b4:	f79ff0ef          	jal	102c <__hidden___udivsi3>
    10b8:	00058513          	mv	a0,a1
    10bc:	00028067          	jr	t0
    10c0:	40b005b3          	neg	a1,a1
    10c4:	fe0558e3          	bgez	a0,10b4 <__modsi3+0xc>
    10c8:	40a00533          	neg	a0,a0
    10cc:	f61ff0ef          	jal	102c <__hidden___udivsi3>
    10d0:	40b00533          	neg	a0,a1
    10d4:	00028067          	jr	t0

Disassembly of section .text.startup:

000010d8 <main>:
    10d8:	00003737          	lui	a4,0x3
    10dc:	000017b7          	lui	a5,0x1
    10e0:	fa010113          	add	sp,sp,-96 # 1ffa0 <__heap_start+0x1bfa0>
    10e4:	31078793          	add	a5,a5,784 # 1310 <__bss_start>
    10e8:	bc070713          	add	a4,a4,-1088 # 2bc0 <__bss_start+0x18b0>
    10ec:	04112e23          	sw	ra,92(sp)
    10f0:	04812c23          	sw	s0,88(sp)
    10f4:	04912a23          	sw	s1,84(sp)
    10f8:	05212823          	sw	s2,80(sp)
    10fc:	05312623          	sw	s3,76(sp)
    1100:	05412423          	sw	s4,72(sp)
    1104:	05512223          	sw	s5,68(sp)
    1108:	05612023          	sw	s6,64(sp)
    110c:	03712e23          	sw	s7,60(sp)
    1110:	03812c23          	sw	s8,56(sp)
    1114:	03912a23          	sw	s9,52(sp)
    1118:	03a12823          	sw	s10,48(sp)
    111c:	03b12623          	sw	s11,44(sp)
    1120:	00e78733          	add	a4,a5,a4
    1124:	7d000693          	li	a3,2000
    1128:	00d7a023          	sw	a3,0(a5)
    112c:	00478793          	add	a5,a5,4
    1130:	fee79ce3          	bne	a5,a4,1128 <main+0x50>
    1134:	000027b7          	lui	a5,0x2
    1138:	00001cb7          	lui	s9,0x1
    113c:	00001b37          	lui	s6,0x1
    1140:	00004bb7          	lui	s7,0x4
    1144:	71078793          	add	a5,a5,1808 # 2710 <__bss_start+0x1400>
    1148:	eccb8b93          	add	s7,s7,-308 # 3ecc <__bss_start+0x2bbc>
    114c:	aefc8c93          	add	s9,s9,-1297 # aef <__mulsi3-0x511>
    1150:	5dfb0b13          	add	s6,s6,1503 # 15df <__bss_start+0x2cf>
    1154:	00000c13          	li	s8,0
    1158:	01410993          	add	s3,sp,20
    115c:	00f12623          	sw	a5,12(sp)
    1160:	00900a13          	li	s4,9
    1164:	00030ab7          	lui	s5,0x30
    1168:	004ba783          	lw	a5,4(s7)
    116c:	000b0593          	mv	a1,s6
    1170:	000c8d93          	mv	s11,s9
    1174:	00279413          	sll	s0,a5,0x2
    1178:	00f40433          	add	s0,s0,a5
    117c:	00341413          	sll	s0,s0,0x3
    1180:	40f40433          	sub	s0,s0,a5
    1184:	00441413          	sll	s0,s0,0x4
    1188:	00f40433          	add	s0,s0,a5
    118c:	00441413          	sll	s0,s0,0x4
    1190:	00040513          	mv	a0,s0
    1194:	f15ff0ef          	jal	10a8 <__modsi3>
    1198:	00050793          	mv	a5,a0
    119c:	000b0593          	mv	a1,s6
    11a0:	00040513          	mv	a0,s0
    11a4:	00fba223          	sw	a5,4(s7)
    11a8:	e7dff0ef          	jal	1024 <__divsi3>
    11ac:	00050413          	mv	s0,a0
    11b0:	ffeb0913          	add	s2,s6,-2
    11b4:	000b8493          	mv	s1,s7
    11b8:	000d8593          	mv	a1,s11
    11bc:	00040513          	mv	a0,s0
    11c0:	e41ff0ef          	jal	1000 <__mulsi3>
    11c4:	0004a703          	lw	a4,0(s1)
    11c8:	00090593          	mv	a1,s2
    11cc:	fffd8d93          	add	s11,s11,-1
    11d0:	00271413          	sll	s0,a4,0x2
    11d4:	00e40433          	add	s0,s0,a4
    11d8:	00341413          	sll	s0,s0,0x3
    11dc:	40e40433          	sub	s0,s0,a4
    11e0:	00441413          	sll	s0,s0,0x4
    11e4:	00e40433          	add	s0,s0,a4
    11e8:	00441413          	sll	s0,s0,0x4
    11ec:	00a40433          	add	s0,s0,a0
    11f0:	00040513          	mv	a0,s0
    11f4:	eb5ff0ef          	jal	10a8 <__modsi3>
    11f8:	00050713          	mv	a4,a0
    11fc:	00090593          	mv	a1,s2
    1200:	00040513          	mv	a0,s0
    1204:	00e4a023          	sw	a4,0(s1)
    1208:	e1dff0ef          	jal	1024 <__divsi3>
    120c:	00050413          	mv	s0,a0
    1210:	ffc48493          	add	s1,s1,-4
    1214:	ffe90913          	add	s2,s2,-2
    1218:	fa0d90e3          	bnez	s11,11b8 <main+0xe0>
    121c:	00c12583          	lw	a1,12(sp)
    1220:	00000493          	li	s1,0
    1224:	e01ff0ef          	jal	1024 <__divsi3>
    1228:	01850933          	add	s2,a0,s8
    122c:	00095663          	bgez	s2,1238 <main+0x160>
    1230:	41200933          	neg	s2,s2
    1234:	00100493          	li	s1,1
    1238:	00a00593          	li	a1,10
    123c:	00090513          	mv	a0,s2
    1240:	e69ff0ef          	jal	10a8 <__modsi3>
    1244:	000d8c13          	mv	s8,s11
    1248:	001d8d93          	add	s11,s11,1
    124c:	03050713          	add	a4,a0,48
    1250:	01b98d33          	add	s10,s3,s11
    1254:	00090513          	mv	a0,s2
    1258:	feed0fa3          	sb	a4,-1(s10)
    125c:	00a00593          	li	a1,10
    1260:	00090d13          	mv	s10,s2
    1264:	dc1ff0ef          	jal	1024 <__divsi3>
    1268:	00050913          	mv	s2,a0
    126c:	fdaa46e3          	blt	s4,s10,1238 <main+0x160>
    1270:	00048e63          	beqz	s1,128c <main+0x1b4>
    1274:	010d8793          	add	a5,s11,16
    1278:	01010713          	add	a4,sp,16
    127c:	00e78733          	add	a4,a5,a4
    1280:	02d00793          	li	a5,45
    1284:	fef70a23          	sb	a5,-12(a4)
    1288:	000d8c13          	mv	s8,s11
    128c:	018987b3          	add	a5,s3,s8
    1290:	0007c683          	lbu	a3,0(a5)
    1294:	00078713          	mv	a4,a5
    1298:	fff78793          	add	a5,a5,-1
    129c:	00da8023          	sb	a3,0(s5) # 30000 <__heap_start+0x2c000>
    12a0:	fee998e3          	bne	s3,a4,1290 <main+0x1b8>
    12a4:	00c12583          	lw	a1,12(sp)
    12a8:	00040513          	mv	a0,s0
    12ac:	fe4b0b13          	add	s6,s6,-28
    12b0:	df9ff0ef          	jal	10a8 <__modsi3>
    12b4:	fff00793          	li	a5,-1
    12b8:	00050c13          	mv	s8,a0
    12bc:	ff2c8c93          	add	s9,s9,-14
    12c0:	fc8b8b93          	add	s7,s7,-56
    12c4:	eafb12e3          	bne	s6,a5,1168 <main+0x90>
    12c8:	00a00793          	li	a5,10
    12cc:	00fa8023          	sb	a5,0(s5)
    12d0:	05c12083          	lw	ra,92(sp)
    12d4:	05812403          	lw	s0,88(sp)
    12d8:	05412483          	lw	s1,84(sp)
    12dc:	05012903          	lw	s2,80(sp)
    12e0:	04c12983          	lw	s3,76(sp)
    12e4:	04812a03          	lw	s4,72(sp)
    12e8:	04412a83          	lw	s5,68(sp)
    12ec:	04012b03          	lw	s6,64(sp)
    12f0:	03c12b83          	lw	s7,60(sp)
    12f4:	03812c03          	lw	s8,56(sp)
    12f8:	03412c83          	lw	s9,52(sp)
    12fc:	03012d03          	lw	s10,48(sp)
    1300:	02c12d83          	lw	s11,44(sp)
    1304:	00000513          	li	a0,0
    1308:	06010113          	add	sp,sp,96
    130c:	00008067          	ret
