
/home/zsq259/Desktop/1/RISC-V-CPU/riscv/testcase/fpga/qsort.om:     file format elf32-littleriscv


Disassembly of section .rom:

00000000 <.rom>:
   0:	00020137          	lui	sp,0x20
   4:	1d4010ef          	jal	11d8 <main>
   8:	0ff00513          	li	a0,255
   c:	000306b7          	lui	a3,0x30
  10:	00a68223          	sb	a0,4(a3) # 30004 <__heap_start+0x24004>
  14:	ff9ff06f          	j	c <qsrt-0xff4>

Disassembly of section .text:

00001000 <qsrt>:
    1000:	00b50733          	add	a4,a0,a1
    1004:	01f75793          	srl	a5,a4,0x1f
    1008:	00e787b3          	add	a5,a5,a4
    100c:	4017d793          	sra	a5,a5,0x1
    1010:	000018b7          	lui	a7,0x1
    1014:	3fc88893          	add	a7,a7,1020 # 13fc <a>
    1018:	00279793          	sll	a5,a5,0x2
    101c:	00f887b3          	add	a5,a7,a5
    1020:	0007a603          	lw	a2,0(a5)
    1024:	ff010113          	add	sp,sp,-16 # 1fff0 <__heap_start+0x13ff0>
    1028:	40000eb7          	lui	t4,0x40000
    102c:	00812423          	sw	s0,8(sp)
    1030:	00912223          	sw	s1,4(sp)
    1034:	00112623          	sw	ra,12(sp)
    1038:	00058493          	mv	s1,a1
    103c:	00050413          	mv	s0,a0
    1040:	fffe8e93          	add	t4,t4,-1 # 3fffffff <__heap_start+0x3fff3fff>
    1044:	0885c663          	blt	a1,s0,10d0 <qsrt+0xd0>
    1048:	00241313          	sll	t1,s0,0x2
    104c:	006887b3          	add	a5,a7,t1
    1050:	0007a683          	lw	a3,0(a5)
    1054:	00259e13          	sll	t3,a1,0x2
    1058:	00140713          	add	a4,s0,1
    105c:	01c88833          	add	a6,a7,t3
    1060:	00271793          	sll	a5,a4,0x2
    1064:	00082803          	lw	a6,0(a6)
    1068:	00f887b3          	add	a5,a7,a5
    106c:	00c6c663          	blt	a3,a2,1078 <qsrt+0x78>
    1070:	0800006f          	j	10f0 <qsrt+0xf0>
    1074:	00170713          	add	a4,a4,1
    1078:	0007a683          	lw	a3,0(a5)
    107c:	00070413          	mv	s0,a4
    1080:	00478793          	add	a5,a5,4
    1084:	fec6c8e3          	blt	a3,a2,1074 <qsrt+0x74>
    1088:	03065063          	bge	a2,a6,10a8 <qsrt+0xa8>
    108c:	01d587b3          	add	a5,a1,t4
    1090:	00279793          	sll	a5,a5,0x2
    1094:	00f887b3          	add	a5,a7,a5
    1098:	0007a803          	lw	a6,0(a5)
    109c:	fff58593          	add	a1,a1,-1
    10a0:	ffc78793          	add	a5,a5,-4
    10a4:	ff064ae3          	blt	a2,a6,1098 <qsrt+0x98>
    10a8:	f885cee3          	blt	a1,s0,1044 <qsrt+0x44>
    10ac:	00241313          	sll	t1,s0,0x2
    10b0:	00259e13          	sll	t3,a1,0x2
    10b4:	00688333          	add	t1,a7,t1
    10b8:	01032023          	sw	a6,0(t1)
    10bc:	01c88e33          	add	t3,a7,t3
    10c0:	00de2023          	sw	a3,0(t3)
    10c4:	00140413          	add	s0,s0,1
    10c8:	fff58593          	add	a1,a1,-1
    10cc:	f685dee3          	bge	a1,s0,1048 <qsrt+0x48>
    10d0:	02b54463          	blt	a0,a1,10f8 <qsrt+0xf8>
    10d4:	02944663          	blt	s0,s1,1100 <qsrt+0x100>
    10d8:	00c12083          	lw	ra,12(sp)
    10dc:	00812403          	lw	s0,8(sp)
    10e0:	00412483          	lw	s1,4(sp)
    10e4:	00000513          	li	a0,0
    10e8:	01010113          	add	sp,sp,16
    10ec:	00008067          	ret
    10f0:	f9064ee3          	blt	a2,a6,108c <qsrt+0x8c>
    10f4:	fc1ff06f          	j	10b4 <qsrt+0xb4>
    10f8:	f09ff0ef          	jal	1000 <qsrt>
    10fc:	fc945ee3          	bge	s0,s1,10d8 <qsrt+0xd8>
    1100:	00048593          	mv	a1,s1
    1104:	00040513          	mv	a0,s0
    1108:	ef9ff0ef          	jal	1000 <qsrt>
    110c:	00c12083          	lw	ra,12(sp)
    1110:	00812403          	lw	s0,8(sp)
    1114:	00412483          	lw	s1,4(sp)
    1118:	00000513          	li	a0,0
    111c:	01010113          	add	sp,sp,16
    1120:	00008067          	ret

00001124 <__divsi3>:
    1124:	06054063          	bltz	a0,1184 <__umodsi3+0x10>
    1128:	0605c663          	bltz	a1,1194 <__umodsi3+0x20>

0000112c <__hidden___udivsi3>:
    112c:	00058613          	mv	a2,a1
    1130:	00050593          	mv	a1,a0
    1134:	fff00513          	li	a0,-1
    1138:	02060c63          	beqz	a2,1170 <__hidden___udivsi3+0x44>
    113c:	00100693          	li	a3,1
    1140:	00b67a63          	bgeu	a2,a1,1154 <__hidden___udivsi3+0x28>
    1144:	00c05863          	blez	a2,1154 <__hidden___udivsi3+0x28>
    1148:	00161613          	sll	a2,a2,0x1
    114c:	00169693          	sll	a3,a3,0x1
    1150:	feb66ae3          	bltu	a2,a1,1144 <__hidden___udivsi3+0x18>
    1154:	00000513          	li	a0,0
    1158:	00c5e663          	bltu	a1,a2,1164 <__hidden___udivsi3+0x38>
    115c:	40c585b3          	sub	a1,a1,a2
    1160:	00d56533          	or	a0,a0,a3
    1164:	0016d693          	srl	a3,a3,0x1
    1168:	00165613          	srl	a2,a2,0x1
    116c:	fe0696e3          	bnez	a3,1158 <__hidden___udivsi3+0x2c>
    1170:	00008067          	ret

00001174 <__umodsi3>:
    1174:	00008293          	mv	t0,ra
    1178:	fb5ff0ef          	jal	112c <__hidden___udivsi3>
    117c:	00058513          	mv	a0,a1
    1180:	00028067          	jr	t0
    1184:	40a00533          	neg	a0,a0
    1188:	00b04863          	bgtz	a1,1198 <__umodsi3+0x24>
    118c:	40b005b3          	neg	a1,a1
    1190:	f9dff06f          	j	112c <__hidden___udivsi3>
    1194:	40b005b3          	neg	a1,a1
    1198:	00008293          	mv	t0,ra
    119c:	f91ff0ef          	jal	112c <__hidden___udivsi3>
    11a0:	40a00533          	neg	a0,a0
    11a4:	00028067          	jr	t0

000011a8 <__modsi3>:
    11a8:	00008293          	mv	t0,ra
    11ac:	0005ca63          	bltz	a1,11c0 <__modsi3+0x18>
    11b0:	00054c63          	bltz	a0,11c8 <__modsi3+0x20>
    11b4:	f79ff0ef          	jal	112c <__hidden___udivsi3>
    11b8:	00058513          	mv	a0,a1
    11bc:	00028067          	jr	t0
    11c0:	40b005b3          	neg	a1,a1
    11c4:	fe0558e3          	bgez	a0,11b4 <__modsi3+0xc>
    11c8:	40a00533          	neg	a0,a0
    11cc:	f61ff0ef          	jal	112c <__hidden___udivsi3>
    11d0:	40b00533          	neg	a0,a1
    11d4:	00028067          	jr	t0

Disassembly of section .text.startup:

000011d8 <main>:
    11d8:	000017b7          	lui	a5,0x1
    11dc:	3f87a583          	lw	a1,1016(a5) # 13f8 <__bss_start>
    11e0:	fa010113          	add	sp,sp,-96
    11e4:	04112e23          	sw	ra,92(sp)
    11e8:	02b05063          	blez	a1,1208 <main+0x30>
    11ec:	00001737          	lui	a4,0x1
    11f0:	00058793          	mv	a5,a1
    11f4:	40070713          	add	a4,a4,1024 # 1400 <a+0x4>
    11f8:	00f72023          	sw	a5,0(a4)
    11fc:	fff78793          	add	a5,a5,-1
    1200:	00470713          	add	a4,a4,4
    1204:	fe079ae3          	bnez	a5,11f8 <main+0x20>
    1208:	00100513          	li	a0,1
    120c:	df5ff0ef          	jal	1000 <qsrt>
    1210:	000017b7          	lui	a5,0x1
    1214:	3f87a783          	lw	a5,1016(a5) # 13f8 <__bss_start>
    1218:	1af05a63          	blez	a5,13cc <main+0x1f4>
    121c:	03812c23          	sw	s8,56(sp)
    1220:	00001c37          	lui	s8,0x1
    1224:	400c0793          	add	a5,s8,1024 # 1400 <a+0x4>
    1228:	04912a23          	sw	s1,84(sp)
    122c:	05212823          	sw	s2,80(sp)
    1230:	05312623          	sw	s3,76(sp)
    1234:	05412423          	sw	s4,72(sp)
    1238:	05512223          	sw	s5,68(sp)
    123c:	00030a37          	lui	s4,0x30
    1240:	000309b7          	lui	s3,0x30
    1244:	00030937          	lui	s2,0x30
    1248:	000304b7          	lui	s1,0x30
    124c:	00011ab7          	lui	s5,0x11
    1250:	00f12223          	sw	a5,4(sp)
    1254:	00100793          	li	a5,1
    1258:	04812c23          	sw	s0,88(sp)
    125c:	05612023          	sw	s6,64(sp)
    1260:	03712e23          	sw	s7,60(sp)
    1264:	03912a23          	sw	s9,52(sp)
    1268:	03a12823          	sw	s10,48(sp)
    126c:	03b12623          	sw	s11,44(sp)
    1270:	00f12623          	sw	a5,12(sp)
    1274:	01410413          	add	s0,sp,20
    1278:	00900b93          	li	s7,9
    127c:	00030b37          	lui	s6,0x30
    1280:	004a0a13          	add	s4,s4,4 # 30004 <__heap_start+0x24004>
    1284:	00598993          	add	s3,s3,5 # 30005 <__heap_start+0x24005>
    1288:	00690913          	add	s2,s2,6 # 30006 <__heap_start+0x24006>
    128c:	00748493          	add	s1,s1,7 # 30007 <__heap_start+0x24007>
    1290:	16fa8a93          	add	s5,s5,367 # 1116f <__heap_start+0x516f>
    1294:	00412783          	lw	a5,4(sp)
    1298:	00012423          	sw	zero,8(sp)
    129c:	0007ac83          	lw	s9,0(a5)
    12a0:	140cc463          	bltz	s9,13e8 <main+0x210>
    12a4:	00000d93          	li	s11,0
    12a8:	00a00593          	li	a1,10
    12ac:	000c8513          	mv	a0,s9
    12b0:	ef9ff0ef          	jal	11a8 <__modsi3>
    12b4:	000d8d13          	mv	s10,s11
    12b8:	001d8d93          	add	s11,s11,1
    12bc:	03050693          	add	a3,a0,48
    12c0:	01b40c33          	add	s8,s0,s11
    12c4:	000c8513          	mv	a0,s9
    12c8:	fedc0fa3          	sb	a3,-1(s8)
    12cc:	00a00593          	li	a1,10
    12d0:	000c8c13          	mv	s8,s9
    12d4:	e51ff0ef          	jal	1124 <__divsi3>
    12d8:	00050c93          	mv	s9,a0
    12dc:	fd8bc6e3          	blt	s7,s8,12a8 <main+0xd0>
    12e0:	00812783          	lw	a5,8(sp)
    12e4:	00078e63          	beqz	a5,1300 <main+0x128>
    12e8:	01010713          	add	a4,sp,16
    12ec:	010d8793          	add	a5,s11,16
    12f0:	00e787b3          	add	a5,a5,a4
    12f4:	02d00713          	li	a4,45
    12f8:	fee78a23          	sb	a4,-12(a5)
    12fc:	000d8d13          	mv	s10,s11
    1300:	01a407b3          	add	a5,s0,s10
    1304:	0007c683          	lbu	a3,0(a5)
    1308:	00078713          	mv	a4,a5
    130c:	fff78793          	add	a5,a5,-1
    1310:	00db0023          	sb	a3,0(s6) # 30000 <__heap_start+0x24000>
    1314:	fee418e3          	bne	s0,a4,1304 <main+0x12c>
    1318:	02000793          	li	a5,32
    131c:	00fb0023          	sb	a5,0(s6)
    1320:	000a4683          	lbu	a3,0(s4)
    1324:	0009c783          	lbu	a5,0(s3)
    1328:	00094703          	lbu	a4,0(s2)
    132c:	0004c583          	lbu	a1,0(s1)
    1330:	00879793          	sll	a5,a5,0x8
    1334:	01071713          	sll	a4,a4,0x10
    1338:	01859593          	sll	a1,a1,0x18
    133c:	00e5e5b3          	or	a1,a1,a4
    1340:	00d5e5b3          	or	a1,a1,a3
    1344:	00f5e5b3          	or	a1,a1,a5
    1348:	000a4603          	lbu	a2,0(s4)
    134c:	0009c703          	lbu	a4,0(s3)
    1350:	00094683          	lbu	a3,0(s2)
    1354:	0004c783          	lbu	a5,0(s1)
    1358:	00871713          	sll	a4,a4,0x8
    135c:	01069693          	sll	a3,a3,0x10
    1360:	01879793          	sll	a5,a5,0x18
    1364:	00d7e7b3          	or	a5,a5,a3
    1368:	00c7e7b3          	or	a5,a5,a2
    136c:	00e7e7b3          	or	a5,a5,a4
    1370:	40b787b3          	sub	a5,a5,a1
    1374:	fcfafae3          	bgeu	s5,a5,1348 <main+0x170>
    1378:	00c12703          	lw	a4,12(sp)
    137c:	00412683          	lw	a3,4(sp)
    1380:	000017b7          	lui	a5,0x1
    1384:	3f87a783          	lw	a5,1016(a5) # 13f8 <__bss_start>
    1388:	00170713          	add	a4,a4,1
    138c:	00468693          	add	a3,a3,4
    1390:	00e12623          	sw	a4,12(sp)
    1394:	00d12223          	sw	a3,4(sp)
    1398:	eee7dee3          	bge	a5,a4,1294 <main+0xbc>
    139c:	05812403          	lw	s0,88(sp)
    13a0:	05412483          	lw	s1,84(sp)
    13a4:	05012903          	lw	s2,80(sp)
    13a8:	04c12983          	lw	s3,76(sp)
    13ac:	04812a03          	lw	s4,72(sp)
    13b0:	04412a83          	lw	s5,68(sp)
    13b4:	04012b03          	lw	s6,64(sp)
    13b8:	03c12b83          	lw	s7,60(sp)
    13bc:	03812c03          	lw	s8,56(sp)
    13c0:	03412c83          	lw	s9,52(sp)
    13c4:	03012d03          	lw	s10,48(sp)
    13c8:	02c12d83          	lw	s11,44(sp)
    13cc:	000307b7          	lui	a5,0x30
    13d0:	00a00713          	li	a4,10
    13d4:	00e78023          	sb	a4,0(a5) # 30000 <__heap_start+0x24000>
    13d8:	05c12083          	lw	ra,92(sp)
    13dc:	00000513          	li	a0,0
    13e0:	06010113          	add	sp,sp,96
    13e4:	00008067          	ret
    13e8:	00100793          	li	a5,1
    13ec:	41900cb3          	neg	s9,s9
    13f0:	00f12423          	sw	a5,8(sp)
    13f4:	eb1ff06f          	j	12a4 <main+0xcc>
